	.text
	.syntax unified
	.eabi_attribute	67, "2.09"	@ Tag_conformance
	.cpu	cortex-a8
	.eabi_attribute	6, 10	@ Tag_CPU_arch
	.eabi_attribute	7, 65	@ Tag_CPU_arch_profile
	.eabi_attribute	8, 1	@ Tag_ARM_ISA_use
	.eabi_attribute	9, 2	@ Tag_THUMB_ISA_use
	.fpu	neon
	.eabi_attribute	17, 1	@ Tag_ABI_PCS_GOT_use
	.eabi_attribute	20, 2	@ Tag_ABI_FP_denormal
	.eabi_attribute	23, 1	@ Tag_ABI_FP_number_model
	.eabi_attribute	34, 1	@ Tag_CPU_unaligned_access
	.eabi_attribute	24, 1	@ Tag_ABI_align_needed
	.eabi_attribute	25, 1	@ Tag_ABI_align_preserved
	.eabi_attribute	28, 1	@ Tag_ABI_VFP_args
	.eabi_attribute	38, 1	@ Tag_ABI_FP_16bit_format
	.eabi_attribute	18, 4	@ Tag_ABI_PCS_wchar_t
	.eabi_attribute	26, 2	@ Tag_ABI_enum_size
	.eabi_attribute	14, 0	@ Tag_ABI_PCS_R9_use
	.eabi_attribute	68, 1	@ Tag_Virtualization_use
	.file	"/root/Bela/projects/Library_LCD_I2C_v1.0/build/render.bc"
	.file	1 "/root/Bela/projects/Library_LCD_I2C_v1.0" "render.cpp"
	.file	2 "/usr/bin/../lib/gcc/arm-linux-gnueabihf/6.3.0/../../../../include/arm-linux-gnueabihf/c++/6.3.0/bits" "c++config.h"
	.file	3 "/usr/bin/../lib/gcc/arm-linux-gnueabihf/6.3.0/../../../../include/c++/6.3.0/bits" "basic_string.h"
	.file	4 "/usr/bin/../lib/gcc/arm-linux-gnueabihf/6.3.0/../../../../include/c++/6.3.0/bits" "alloc_traits.h"
	.file	5 "/usr/bin/../lib/gcc/arm-linux-gnueabihf/6.3.0/../../../../include/c++/6.3.0/ext" "alloc_traits.h"
	.file	6 "/usr/bin/../lib/gcc/arm-linux-gnueabihf/6.3.0/../../../../include/c++/6.3.0/bits" "char_traits.h"
	.file	7 "/usr/bin/../lib/gcc/arm-linux-gnueabihf/6.3.0/../../../../include/c++/6.3.0/debug" "debug.h"
	.file	8 "/usr/include" "wchar.h"
	.file	9 "/usr/lib/llvm-3.9/bin/../lib/clang/3.9.1/include" "stddef.h"
	.file	10 "/usr/include" "libio.h"
	.file	11 "/usr/include/arm-linux-gnueabihf/bits" "types.h"
	.file	12 "/usr/include" "stdio.h"
	.file	13 "/usr/lib/llvm-3.9/bin/../lib/clang/3.9.1/include" "stdarg.h"
	.file	14 "/usr/include" "stdint.h"
	.file	15 "/usr/bin/../lib/gcc/arm-linux-gnueabihf/6.3.0/../../../../include/c++/6.3.0/bits" "exception_ptr.h"
	.file	16 "/usr/include" "locale.h"
	.file	17 "/usr/include" "ctype.h"
	.file	18 "/usr/include" "stdlib.h"
	.file	19 "/usr/include/arm-linux-gnueabihf/bits" "stdlib-float.h"
	.file	20 "/usr/include/arm-linux-gnueabihf/bits" "stdlib-bsearch.h"
	.file	21 "/usr/bin/../lib/gcc/arm-linux-gnueabihf/6.3.0/../../../../include/c++/6.3.0" "cstdlib"
	.file	22 "/usr/include" "_G_config.h"
	.file	23 "/usr/include/arm-linux-gnueabihf/bits" "stdio.h"
	.globl	setup
	.p2align	2
	.type	setup,%function
setup:                                  @ @setup
.Lfunc_begin0:
	.loc	1 10 0                  @ /root/Bela/projects/Library_LCD_I2C_v1.0/render.cpp:10:0
	.fnstart
	.cfi_startproc
@ BB#0:                                 @ %._crit_edge.i.i.i.i
	.save	{r4, r5, r6, r10, r11, lr}
	push	{r4, r5, r6, r10, r11, lr}
.Ltmp48:
	.cfi_def_cfa_offset 24
.Ltmp49:
	.cfi_offset lr, -4
.Ltmp50:
	.cfi_offset r11, -8
.Ltmp51:
	.cfi_offset r10, -12
.Ltmp52:
	.cfi_offset r6, -16
.Ltmp53:
	.cfi_offset r5, -20
.Ltmp54:
	.cfi_offset r4, -24
	.setfp	r11, sp, #16
	add	r11, sp, #16
.Ltmp55:
	.cfi_def_cfa r11, 8
	.pad	#312
	sub	sp, sp, #312
	@DEBUG_VALUE: setup:context <- %R0
	@DEBUG_VALUE: setup:userData <- %R1
.Ltmp56:
	.loc	1 11 12 prologue_end    @ /root/Bela/projects/Library_LCD_I2C_v1.0/render.cpp:11:12
	movw	r4, :lower16:myDisplay
	movt	r4, :upper16:myDisplay
	mov	r0, r4
.Ltmp57:
	bl	_ZN7LCD_I2C5clearEv
.Ltmp58:
	.loc	6 290 33                @ /usr/bin/../lib/gcc/arm-linux-gnueabihf/6.3.0/../../../../include/c++/6.3.0/bits/char_traits.h:290:33
	movw	r0, :lower16:.L.str
	sub	r1, r11, #56
.Ltmp59:
	@DEBUG_VALUE: _M_data:this <- %R1
	@DEBUG_VALUE: _M_length:this <- %R1
	@DEBUG_VALUE: _M_set_length:__n <- 12
	@DEBUG_VALUE: _M_set_length:this <- %R1
	@DEBUG_VALUE: _M_data:this <- %R1
	@DEBUG_VALUE: _M_construct<const char *>:__dnew <- 12
	@DEBUG_VALUE: _M_construct<const char *>:this <- %R1
	@DEBUG_VALUE: _M_construct_aux<const char *>:this <- %R1
	@DEBUG_VALUE: _M_construct<const char *>:this <- %R1
	@DEBUG_VALUE: _S_copy_chars:__p <- %R5
	@DEBUG_VALUE: _S_copy:__d <- %R5
	@DEBUG_VALUE: _M_local_data:this <- %R1
	movt	r0, :upper16:.L.str
.Ltmp60:
	.loc	3 142 51                @ /usr/bin/../lib/gcc/arm-linux-gnueabihf/6.3.0/../../../../include/c++/6.3.0/bits/basic_string.h:142:51
	add	r5, r1, #8
.Ltmp61:
	.loc	6 290 33                @ /usr/bin/../lib/gcc/arm-linux-gnueabihf/6.3.0/../../../../include/c++/6.3.0/bits/char_traits.h:290:33
	vldr	d16, [r0]
	movw	r0, #27762
	movt	r0, #8548
.Ltmp62:
	.loc	3 110 25                @ /usr/bin/../lib/gcc/arm-linux-gnueabihf/6.3.0/../../../../include/c++/6.3.0/bits/basic_string.h:110:25
	str	r5, [r11, #-56]
.Ltmp63:
	@DEBUG_VALUE: _S_copy:__n <- 12
	.loc	6 290 33                @ /usr/bin/../lib/gcc/arm-linux-gnueabihf/6.3.0/../../../../include/c++/6.3.0/bits/char_traits.h:290:33
	str	r0, [r11, #-40]
	mov	r0, #12
.Ltmp64:
	@DEBUG_VALUE: _M_length:__length <- 12
	vstr	d16, [r11, #-48]
.Ltmp65:
	.loc	3 132 26                @ /usr/bin/../lib/gcc/arm-linux-gnueabihf/6.3.0/../../../../include/c++/6.3.0/bits/basic_string.h:132:26
	str	r0, [r11, #-52]
.Ltmp66:
	.loc	6 243 14                @ /usr/bin/../lib/gcc/arm-linux-gnueabihf/6.3.0/../../../../include/c++/6.3.0/bits/char_traits.h:243:14
	mov	r0, #0
	strb	r0, [r11, #-36]
.Ltmp67:
	.loc	1 12 12 discriminator 1 @ /root/Bela/projects/Library_LCD_I2C_v1.0/render.cpp:12:12
.Ltmp0:
	mov	r0, r4
	bl	_ZN7LCD_I2C5writeENSt7__cxx1112basic_stringIcSt11char_traitsIcESaIcEEE
.Ltmp68:
.Ltmp1:
.Ltmp69:
	@DEBUG_VALUE: _S_copy:__s <- %R0
@ BB#1:
	@DEBUG_VALUE: _S_copy:__s <- %R0
	.loc	3 136 28                @ /usr/bin/../lib/gcc/arm-linux-gnueabihf/6.3.0/../../../../include/c++/6.3.0/bits/basic_string.h:136:28
	ldr	r0, [r11, #-56]
.Ltmp70:
	@DEBUG_VALUE: deallocate:__p <- %R0
	@DEBUG_VALUE: deallocate:__p <- %R0
	.loc	3 180 6                 @ /usr/bin/../lib/gcc/arm-linux-gnueabihf/6.3.0/../../../../include/c++/6.3.0/bits/basic_string.h:180:6
	cmp	r0, r5
	beq	.LBB0_3
.Ltmp71:
@ BB#2:
	@DEBUG_VALUE: deallocate:__p <- %R0
	@DEBUG_VALUE: deallocate:__p <- %R0
	.file	24 "/usr/bin/../lib/gcc/arm-linux-gnueabihf/6.3.0/../../../../include/c++/6.3.0/ext" "new_allocator.h"
	.loc	24 110 9                @ /usr/bin/../lib/gcc/arm-linux-gnueabihf/6.3.0/../../../../include/c++/6.3.0/ext/new_allocator.h:110:9
	bl	_ZdlPv
.Ltmp72:
.LBB0_3:                                @ %_ZNSt7__cxx1112basic_stringIcSt11char_traitsIcESaIcEED2Ev.exit16
	.loc	1 13 2                  @ /root/Bela/projects/Library_LCD_I2C_v1.0/render.cpp:13:2
	mov	r0, #1
	bl	sleep
	sub	r0, r11, #80
.Ltmp73:
	@DEBUG_VALUE: _M_construct<const char *>:this <- %R0
	@DEBUG_VALUE: _M_construct_aux<const char *>:this <- %R0
	@DEBUG_VALUE: _M_construct<const char *>:this <- %R0
	@DEBUG_VALUE: _M_local_data:this <- %R0
	.file	25 "/usr/bin/../lib/gcc/arm-linux-gnueabihf/6.3.0/../../../../include/c++/6.3.0/bits" "basic_string.tcc"
	.loc	25 215 12               @ /usr/bin/../lib/gcc/arm-linux-gnueabihf/6.3.0/../../../../include/c++/6.3.0/bits/basic_string.tcc:215:12
	mov	r1, #17
.Ltmp74:
	@DEBUG_VALUE: _M_construct<const char *>:__dnew <- 17
	.loc	3 142 51                @ /usr/bin/../lib/gcc/arm-linux-gnueabihf/6.3.0/../../../../include/c++/6.3.0/bits/basic_string.h:142:51
	add	r5, r0, #8
.Ltmp75:
	.loc	3 110 25                @ /usr/bin/../lib/gcc/arm-linux-gnueabihf/6.3.0/../../../../include/c++/6.3.0/bits/basic_string.h:110:25
	str	r5, [r11, #-80]
.Ltmp76:
	.loc	25 215 12               @ /usr/bin/../lib/gcc/arm-linux-gnueabihf/6.3.0/../../../../include/c++/6.3.0/bits/basic_string.tcc:215:12
	str	r1, [r11, #-32]
.Ltmp77:
	.loc	25 219 14               @ /usr/bin/../lib/gcc/arm-linux-gnueabihf/6.3.0/../../../../include/c++/6.3.0/bits/basic_string.tcc:219:14
.Ltmp3:
	sub	r1, r11, #32
.Ltmp78:
	@DEBUG_VALUE: _M_construct<const char *>:__dnew <- [%R1+0]
	mov	r2, #0
	mov	r4, #0
	bl	_ZNSt7__cxx1112basic_stringIcSt11char_traitsIcESaIcEE9_M_createERjj
.Ltmp79:
.Ltmp4:
.Ltmp80:
@ BB#4:                                 @ %.noexc22
	.loc	6 290 33                @ /usr/bin/../lib/gcc/arm-linux-gnueabihf/6.3.0/../../../../include/c++/6.3.0/bits/char_traits.h:290:33
	movw	r2, :lower16:.L.str.1
.Ltmp81:
	.loc	25 220 18               @ /usr/bin/../lib/gcc/arm-linux-gnueabihf/6.3.0/../../../../include/c++/6.3.0/bits/basic_string.tcc:220:18
	ldr	r1, [r11, #-32]
.Ltmp82:
	@DEBUG_VALUE: _M_capacity:__capacity <- %R1
	@DEBUG_VALUE: _M_set_length:__n <- %R1
	@DEBUG_VALUE: _M_length:__length <- %R1
	@DEBUG_VALUE: _M_construct<const char *>:__dnew <- %R1
	.loc	6 290 33                @ /usr/bin/../lib/gcc/arm-linux-gnueabihf/6.3.0/../../../../include/c++/6.3.0/bits/char_traits.h:290:33
	movt	r2, :upper16:.L.str.1
	vld1.64	{d16, d17}, [r2]
	mov	r2, #103
.Ltmp83:
	.loc	3 128 26                @ /usr/bin/../lib/gcc/arm-linux-gnueabihf/6.3.0/../../../../include/c++/6.3.0/bits/basic_string.h:128:26
	str	r0, [r11, #-80]
.Ltmp84:
	@DEBUG_VALUE: _M_data:__p <- %R0
	.loc	3 160 31                @ /usr/bin/../lib/gcc/arm-linux-gnueabihf/6.3.0/../../../../include/c++/6.3.0/bits/basic_string.h:160:31
	str	r1, [r11, #-72]
.Ltmp85:
	@DEBUG_VALUE: _S_copy:__d <- %R0
	@DEBUG_VALUE: _S_copy:__n <- 17
	.loc	6 290 33                @ /usr/bin/../lib/gcc/arm-linux-gnueabihf/6.3.0/../../../../include/c++/6.3.0/bits/char_traits.h:290:33
	vst1.8	{d16, d17}, [r0]!
.Ltmp86:
	strb	r2, [r0]
.Ltmp87:
	.loc	3 132 26                @ /usr/bin/../lib/gcc/arm-linux-gnueabihf/6.3.0/../../../../include/c++/6.3.0/bits/basic_string.h:132:26
	str	r1, [r11, #-76]
.Ltmp88:
	.loc	3 136 28                @ /usr/bin/../lib/gcc/arm-linux-gnueabihf/6.3.0/../../../../include/c++/6.3.0/bits/basic_string.h:136:28
	ldr	r0, [r11, #-80]
.Ltmp89:
	.loc	6 243 14                @ /usr/bin/../lib/gcc/arm-linux-gnueabihf/6.3.0/../../../../include/c++/6.3.0/bits/char_traits.h:243:14
	strb	r4, [r0, r1]
.Ltmp90:
	.loc	1 15 15 discriminator 1 @ /root/Bela/projects/Library_LCD_I2C_v1.0/render.cpp:15:15
.Ltmp6:
	movw	r0, :lower16:myDisplay
	sub	r3, r11, #80
.Ltmp91:
	@DEBUG_VALUE: _M_data:this <- %R3
	@DEBUG_VALUE: _M_length:this <- %R3
	@DEBUG_VALUE: _M_set_length:this <- %R3
	@DEBUG_VALUE: _M_data:this <- %R3
	@DEBUG_VALUE: _M_capacity:this <- %R3
	@DEBUG_VALUE: _M_data:this <- %R3
	movt	r0, :upper16:myDisplay
	mov	r1, #0
.Ltmp92:
	mov	r2, #0
	bl	_ZN7LCD_I2C14setCursorWriteEhhNSt7__cxx1112basic_stringIcSt11char_traitsIcESaIcEEE
.Ltmp93:
.Ltmp7:
.Ltmp94:
	@DEBUG_VALUE: _S_copy:__s <- %R2
@ BB#5:
	@DEBUG_VALUE: _S_copy:__s <- %R2
	.loc	3 136 28                @ /usr/bin/../lib/gcc/arm-linux-gnueabihf/6.3.0/../../../../include/c++/6.3.0/bits/basic_string.h:136:28
	ldr	r0, [r11, #-80]
.Ltmp95:
	@DEBUG_VALUE: deallocate:__p <- %R0
	@DEBUG_VALUE: deallocate:__p <- %R0
	.loc	3 180 6                 @ /usr/bin/../lib/gcc/arm-linux-gnueabihf/6.3.0/../../../../include/c++/6.3.0/bits/basic_string.h:180:6
	cmp	r0, r5
	beq	.LBB0_7
.Ltmp96:
@ BB#6:
	@DEBUG_VALUE: deallocate:__p <- %R0
	@DEBUG_VALUE: deallocate:__p <- %R0
	@DEBUG_VALUE: _S_copy:__s <- %R2
	.loc	24 110 9                @ /usr/bin/../lib/gcc/arm-linux-gnueabihf/6.3.0/../../../../include/c++/6.3.0/ext/new_allocator.h:110:9
	bl	_ZdlPv
.Ltmp97:
.LBB0_7:                                @ %_ZNSt7__cxx1112basic_stringIcSt11char_traitsIcESaIcEED2Ev.exit24
	.loc	1 16 5                  @ /root/Bela/projects/Library_LCD_I2C_v1.0/render.cpp:16:5
	mov	r0, #1
	bl	sleep
	.loc	1 17 15                 @ /root/Bela/projects/Library_LCD_I2C_v1.0/render.cpp:17:15
	movw	r4, :lower16:myDisplay
	movt	r4, :upper16:myDisplay
	mov	r0, r4
	bl	_ZN7LCD_I2C11noBacklightEv
	.loc	1 18 15                 @ /root/Bela/projects/Library_LCD_I2C_v1.0/render.cpp:18:15
	mov	r0, r4
	bl	_ZN7LCD_I2C5clearEv
.Ltmp98:
	.loc	6 290 33                @ /usr/bin/../lib/gcc/arm-linux-gnueabihf/6.3.0/../../../../include/c++/6.3.0/bits/char_traits.h:290:33
	movw	r0, #28482
	sub	r3, r11, #104
.Ltmp99:
	@DEBUG_VALUE: _M_data:this <- %R3
	@DEBUG_VALUE: _M_length:this <- %R3
	@DEBUG_VALUE: _M_set_length:__n <- 4
	@DEBUG_VALUE: _M_set_length:this <- %R3
	@DEBUG_VALUE: _M_data:this <- %R3
	@DEBUG_VALUE: _M_construct<const char *>:__dnew <- 4
	@DEBUG_VALUE: _M_construct<const char *>:this <- %R3
	@DEBUG_VALUE: _M_construct_aux<const char *>:this <- %R3
	@DEBUG_VALUE: _M_construct<const char *>:this <- %R3
	@DEBUG_VALUE: _M_local_data:this <- %R3
	movt	r0, #8559
.Ltmp100:
	@DEBUG_VALUE: _S_copy:__n <- 4
	.loc	3 142 51                @ /usr/bin/../lib/gcc/arm-linux-gnueabihf/6.3.0/../../../../include/c++/6.3.0/bits/basic_string.h:142:51
	add	r5, r3, #8
.Ltmp101:
	.loc	3 110 25                @ /usr/bin/../lib/gcc/arm-linux-gnueabihf/6.3.0/../../../../include/c++/6.3.0/bits/basic_string.h:110:25
	str	r5, [r11, #-104]
.Ltmp102:
	.loc	6 290 33                @ /usr/bin/../lib/gcc/arm-linux-gnueabihf/6.3.0/../../../../include/c++/6.3.0/bits/char_traits.h:290:33
	str	r0, [r11, #-96]
	mov	r0, #4
.Ltmp103:
	@DEBUG_VALUE: _M_length:__length <- 4
	.loc	3 132 26                @ /usr/bin/../lib/gcc/arm-linux-gnueabihf/6.3.0/../../../../include/c++/6.3.0/bits/basic_string.h:132:26
	str	r0, [r11, #-100]
	mov	r0, #0
.Ltmp104:
	.loc	6 243 14                @ /usr/bin/../lib/gcc/arm-linux-gnueabihf/6.3.0/../../../../include/c++/6.3.0/bits/char_traits.h:243:14
	strb	r0, [r11, #-92]
.Ltmp105:
	.loc	1 19 15 discriminator 1 @ /root/Bela/projects/Library_LCD_I2C_v1.0/render.cpp:19:15
.Ltmp9:
	mov	r0, r4
	mov	r1, #1
	mov	r2, #0
	bl	_ZN7LCD_I2C14setCursorWriteEhhNSt7__cxx1112basic_stringIcSt11char_traitsIcESaIcEEE
.Ltmp106:
.Ltmp10:
@ BB#8:
.Ltmp107:
	.loc	3 136 28                @ /usr/bin/../lib/gcc/arm-linux-gnueabihf/6.3.0/../../../../include/c++/6.3.0/bits/basic_string.h:136:28
	ldr	r0, [r11, #-104]
.Ltmp108:
	@DEBUG_VALUE: deallocate:__p <- %R0
	@DEBUG_VALUE: deallocate:__p <- %R0
	.loc	3 180 6                 @ /usr/bin/../lib/gcc/arm-linux-gnueabihf/6.3.0/../../../../include/c++/6.3.0/bits/basic_string.h:180:6
	cmp	r0, r5
	beq	.LBB0_10
.Ltmp109:
@ BB#9:
	@DEBUG_VALUE: deallocate:__p <- %R0
	@DEBUG_VALUE: deallocate:__p <- %R0
	.loc	24 110 9                @ /usr/bin/../lib/gcc/arm-linux-gnueabihf/6.3.0/../../../../include/c++/6.3.0/ext/new_allocator.h:110:9
	bl	_ZdlPv
.Ltmp110:
.LBB0_10:                               @ %_ZNSt7__cxx1112basic_stringIcSt11char_traitsIcESaIcEED2Ev.exit32
	.loc	1 20 5                  @ /root/Bela/projects/Library_LCD_I2C_v1.0/render.cpp:20:5
	mov	r0, #1
	bl	sleep
	.loc	1 21 15                 @ /root/Bela/projects/Library_LCD_I2C_v1.0/render.cpp:21:15
	movw	r4, :lower16:myDisplay
	movt	r4, :upper16:myDisplay
	mov	r0, r4
	bl	_ZN7LCD_I2C9backlightEv
	.loc	1 22 5                  @ /root/Bela/projects/Library_LCD_I2C_v1.0/render.cpp:22:5
	mov	r0, #1
	bl	sleep
	.loc	1 23 15                 @ /root/Bela/projects/Library_LCD_I2C_v1.0/render.cpp:23:15
	mov	r0, r4
	bl	_ZN7LCD_I2C5clearEv
	sub	r0, r11, #128
.Ltmp111:
	@DEBUG_VALUE: _M_construct<const char *>:this <- %R0
	@DEBUG_VALUE: _M_construct_aux<const char *>:this <- %R0
	@DEBUG_VALUE: _M_construct<const char *>:this <- %R0
	@DEBUG_VALUE: _M_local_data:this <- %R0
	.loc	25 215 12               @ /usr/bin/../lib/gcc/arm-linux-gnueabihf/6.3.0/../../../../include/c++/6.3.0/bits/basic_string.tcc:215:12
	mov	r1, #17
.Ltmp112:
	@DEBUG_VALUE: _M_construct<const char *>:__dnew <- 17
	.loc	3 142 51                @ /usr/bin/../lib/gcc/arm-linux-gnueabihf/6.3.0/../../../../include/c++/6.3.0/bits/basic_string.h:142:51
	add	r5, r0, #8
.Ltmp113:
	.loc	3 110 25                @ /usr/bin/../lib/gcc/arm-linux-gnueabihf/6.3.0/../../../../include/c++/6.3.0/bits/basic_string.h:110:25
	str	r5, [r11, #-128]
.Ltmp114:
	.loc	25 215 12               @ /usr/bin/../lib/gcc/arm-linux-gnueabihf/6.3.0/../../../../include/c++/6.3.0/bits/basic_string.tcc:215:12
	str	r1, [r11, #-28]
.Ltmp115:
	.loc	25 219 14               @ /usr/bin/../lib/gcc/arm-linux-gnueabihf/6.3.0/../../../../include/c++/6.3.0/bits/basic_string.tcc:219:14
.Ltmp12:
	sub	r1, r11, #28
.Ltmp116:
	@DEBUG_VALUE: _M_construct<const char *>:__dnew <- [%R1+0]
	mov	r2, #0
	mov	r4, #0
	bl	_ZNSt7__cxx1112basic_stringIcSt11char_traitsIcESaIcEE9_M_createERjj
.Ltmp117:
.Ltmp13:
.Ltmp118:
@ BB#11:                                @ %.noexc38
	.loc	6 290 33                @ /usr/bin/../lib/gcc/arm-linux-gnueabihf/6.3.0/../../../../include/c++/6.3.0/bits/char_traits.h:290:33
	movw	r2, :lower16:.L.str.3
.Ltmp119:
	.loc	25 220 18               @ /usr/bin/../lib/gcc/arm-linux-gnueabihf/6.3.0/../../../../include/c++/6.3.0/bits/basic_string.tcc:220:18
	ldr	r1, [r11, #-28]
.Ltmp120:
	@DEBUG_VALUE: _M_capacity:__capacity <- %R1
	@DEBUG_VALUE: _M_set_length:__n <- %R1
	@DEBUG_VALUE: _M_length:__length <- %R1
	@DEBUG_VALUE: _M_construct<const char *>:__dnew <- %R1
	.loc	6 290 33                @ /usr/bin/../lib/gcc/arm-linux-gnueabihf/6.3.0/../../../../include/c++/6.3.0/bits/char_traits.h:290:33
	movt	r2, :upper16:.L.str.3
	vld1.64	{d16, d17}, [r2]
	mov	r2, #32
.Ltmp121:
	.loc	3 128 26                @ /usr/bin/../lib/gcc/arm-linux-gnueabihf/6.3.0/../../../../include/c++/6.3.0/bits/basic_string.h:128:26
	str	r0, [r11, #-128]
.Ltmp122:
	@DEBUG_VALUE: _M_data:__p <- %R0
	.loc	3 160 31                @ /usr/bin/../lib/gcc/arm-linux-gnueabihf/6.3.0/../../../../include/c++/6.3.0/bits/basic_string.h:160:31
	str	r1, [r11, #-120]
.Ltmp123:
	@DEBUG_VALUE: _S_copy:__d <- %R0
	@DEBUG_VALUE: _S_copy:__n <- 17
	.loc	6 290 33                @ /usr/bin/../lib/gcc/arm-linux-gnueabihf/6.3.0/../../../../include/c++/6.3.0/bits/char_traits.h:290:33
	vst1.8	{d16, d17}, [r0]!
.Ltmp124:
	strb	r2, [r0]
.Ltmp125:
	.loc	3 132 26                @ /usr/bin/../lib/gcc/arm-linux-gnueabihf/6.3.0/../../../../include/c++/6.3.0/bits/basic_string.h:132:26
	str	r1, [r11, #-124]
.Ltmp126:
	.loc	3 136 28                @ /usr/bin/../lib/gcc/arm-linux-gnueabihf/6.3.0/../../../../include/c++/6.3.0/bits/basic_string.h:136:28
	ldr	r0, [r11, #-128]
.Ltmp127:
	.loc	6 243 14                @ /usr/bin/../lib/gcc/arm-linux-gnueabihf/6.3.0/../../../../include/c++/6.3.0/bits/char_traits.h:243:14
	strb	r4, [r0, r1]
.Ltmp128:
	.loc	1 25 15 discriminator 1 @ /root/Bela/projects/Library_LCD_I2C_v1.0/render.cpp:25:15
.Ltmp15:
	movw	r0, :lower16:myDisplay
	sub	r3, r11, #128
.Ltmp129:
	@DEBUG_VALUE: _M_data:this <- %R3
	@DEBUG_VALUE: _M_length:this <- %R3
	@DEBUG_VALUE: _M_set_length:this <- %R3
	@DEBUG_VALUE: _M_data:this <- %R3
	@DEBUG_VALUE: _M_capacity:this <- %R3
	@DEBUG_VALUE: _M_data:this <- %R3
	movt	r0, :upper16:myDisplay
	mov	r1, #0
.Ltmp130:
	mov	r2, #0
	bl	_ZN7LCD_I2C14setCursorWriteEhhNSt7__cxx1112basic_stringIcSt11char_traitsIcESaIcEEE
.Ltmp131:
.Ltmp16:
.Ltmp132:
	@DEBUG_VALUE: _S_copy:__s <- %R2
@ BB#12:
	@DEBUG_VALUE: _S_copy:__s <- %R2
	.loc	3 136 28                @ /usr/bin/../lib/gcc/arm-linux-gnueabihf/6.3.0/../../../../include/c++/6.3.0/bits/basic_string.h:136:28
	ldr	r0, [r11, #-128]
.Ltmp133:
	@DEBUG_VALUE: deallocate:__p <- %R0
	@DEBUG_VALUE: deallocate:__p <- %R0
	.loc	3 180 6                 @ /usr/bin/../lib/gcc/arm-linux-gnueabihf/6.3.0/../../../../include/c++/6.3.0/bits/basic_string.h:180:6
	cmp	r0, r5
	beq	.LBB0_14
.Ltmp134:
@ BB#13:
	@DEBUG_VALUE: deallocate:__p <- %R0
	@DEBUG_VALUE: deallocate:__p <- %R0
	@DEBUG_VALUE: _S_copy:__s <- %R2
	.loc	24 110 9                @ /usr/bin/../lib/gcc/arm-linux-gnueabihf/6.3.0/../../../../include/c++/6.3.0/ext/new_allocator.h:110:9
	bl	_ZdlPv
.Ltmp135:
.LBB0_14:                               @ %_ZNSt7__cxx1112basic_stringIcSt11char_traitsIcESaIcEED2Ev.exit40
	.loc	1 26 5                  @ /root/Bela/projects/Library_LCD_I2C_v1.0/render.cpp:26:5
	mov	r0, #1
	bl	sleep
	.loc	1 27 15                 @ /root/Bela/projects/Library_LCD_I2C_v1.0/render.cpp:27:15
	movw	r4, :lower16:myDisplay
	movt	r4, :upper16:myDisplay
	mov	r0, r4
	bl	_ZN7LCD_I2C9noDisplayEv
	.loc	1 28 15                 @ /root/Bela/projects/Library_LCD_I2C_v1.0/render.cpp:28:15
	mov	r0, r4
	bl	_ZN7LCD_I2C5clearEv
.Ltmp136:
	.loc	6 290 33                @ /usr/bin/../lib/gcc/arm-linux-gnueabihf/6.3.0/../../../../include/c++/6.3.0/bits/char_traits.h:290:33
	movw	r0, :lower16:.L.str.4
	sub	r3, r11, #152
.Ltmp137:
	@DEBUG_VALUE: _M_data:this <- %R3
	@DEBUG_VALUE: _M_length:this <- %R3
	@DEBUG_VALUE: _M_set_length:__n <- 9
	@DEBUG_VALUE: _M_set_length:this <- %R3
	@DEBUG_VALUE: _M_data:this <- %R3
	@DEBUG_VALUE: _M_construct<const char *>:__dnew <- 9
	@DEBUG_VALUE: _M_construct<const char *>:this <- %R3
	@DEBUG_VALUE: _M_construct_aux<const char *>:this <- %R3
	@DEBUG_VALUE: _M_construct<const char *>:this <- %R3
	@DEBUG_VALUE: _S_copy_chars:__p <- %R5
	@DEBUG_VALUE: _S_copy:__d <- %R5
	@DEBUG_VALUE: _M_local_data:this <- %R3
	movt	r0, :upper16:.L.str.4
.Ltmp138:
	.loc	3 142 51                @ /usr/bin/../lib/gcc/arm-linux-gnueabihf/6.3.0/../../../../include/c++/6.3.0/bits/basic_string.h:142:51
	add	r5, r3, #8
.Ltmp139:
	.loc	6 290 33                @ /usr/bin/../lib/gcc/arm-linux-gnueabihf/6.3.0/../../../../include/c++/6.3.0/bits/char_traits.h:290:33
	vldr	d16, [r0]
	mov	r0, #33
.Ltmp140:
	.loc	3 110 25                @ /usr/bin/../lib/gcc/arm-linux-gnueabihf/6.3.0/../../../../include/c++/6.3.0/bits/basic_string.h:110:25
	str	r5, [r11, #-152]
.Ltmp141:
	@DEBUG_VALUE: _S_copy:__n <- 9
	.loc	6 290 33                @ /usr/bin/../lib/gcc/arm-linux-gnueabihf/6.3.0/../../../../include/c++/6.3.0/bits/char_traits.h:290:33
	strb	r0, [r11, #-136]
	mov	r0, #9
.Ltmp142:
	@DEBUG_VALUE: _M_length:__length <- 9
	vstr	d16, [r11, #-144]
.Ltmp143:
	.loc	3 132 26                @ /usr/bin/../lib/gcc/arm-linux-gnueabihf/6.3.0/../../../../include/c++/6.3.0/bits/basic_string.h:132:26
	str	r0, [r11, #-148]
	mov	r0, #0
.Ltmp144:
	.loc	6 243 14                @ /usr/bin/../lib/gcc/arm-linux-gnueabihf/6.3.0/../../../../include/c++/6.3.0/bits/char_traits.h:243:14
	strb	r0, [r11, #-135]
.Ltmp145:
	.loc	1 29 15 discriminator 1 @ /root/Bela/projects/Library_LCD_I2C_v1.0/render.cpp:29:15
.Ltmp18:
	mov	r0, r4
	mov	r1, #2
	mov	r2, #0
	bl	_ZN7LCD_I2C14setCursorWriteEhhNSt7__cxx1112basic_stringIcSt11char_traitsIcESaIcEEE
.Ltmp146:
.Ltmp19:
.Ltmp147:
	@DEBUG_VALUE: _S_copy:__s <- %R0
@ BB#15:
	@DEBUG_VALUE: _S_copy:__s <- %R0
	.loc	3 136 28                @ /usr/bin/../lib/gcc/arm-linux-gnueabihf/6.3.0/../../../../include/c++/6.3.0/bits/basic_string.h:136:28
	ldr	r0, [r11, #-152]
.Ltmp148:
	@DEBUG_VALUE: deallocate:__p <- %R0
	@DEBUG_VALUE: deallocate:__p <- %R0
	.loc	3 180 6                 @ /usr/bin/../lib/gcc/arm-linux-gnueabihf/6.3.0/../../../../include/c++/6.3.0/bits/basic_string.h:180:6
	cmp	r0, r5
	beq	.LBB0_17
.Ltmp149:
@ BB#16:
	@DEBUG_VALUE: deallocate:__p <- %R0
	@DEBUG_VALUE: deallocate:__p <- %R0
	.loc	24 110 9                @ /usr/bin/../lib/gcc/arm-linux-gnueabihf/6.3.0/../../../../include/c++/6.3.0/ext/new_allocator.h:110:9
	bl	_ZdlPv
.Ltmp150:
.LBB0_17:                               @ %_ZNSt7__cxx1112basic_stringIcSt11char_traitsIcESaIcEED2Ev.exit48
	.loc	1 30 5                  @ /root/Bela/projects/Library_LCD_I2C_v1.0/render.cpp:30:5
	mov	r0, #1
	bl	sleep
	.loc	1 31 15                 @ /root/Bela/projects/Library_LCD_I2C_v1.0/render.cpp:31:15
	movw	r4, :lower16:myDisplay
	movt	r4, :upper16:myDisplay
	mov	r0, r4
	bl	_ZN7LCD_I2C7displayEv
	.loc	1 32 5                  @ /root/Bela/projects/Library_LCD_I2C_v1.0/render.cpp:32:5
	mov	r0, #1
	bl	sleep
	.loc	1 33 15                 @ /root/Bela/projects/Library_LCD_I2C_v1.0/render.cpp:33:15
	mov	r0, r4
	bl	_ZN7LCD_I2C5clearEv
	add	r0, sp, #152
.Ltmp151:
	@DEBUG_VALUE: _M_construct<const char *>:this <- %R0
	@DEBUG_VALUE: _M_construct_aux<const char *>:this <- %R0
	@DEBUG_VALUE: _M_construct<const char *>:this <- %R0
	@DEBUG_VALUE: _M_local_data:this <- %R0
	.loc	25 215 12               @ /usr/bin/../lib/gcc/arm-linux-gnueabihf/6.3.0/../../../../include/c++/6.3.0/bits/basic_string.tcc:215:12
	mov	r1, #19
.Ltmp152:
	@DEBUG_VALUE: _M_construct<const char *>:__dnew <- 19
	.loc	3 142 51                @ /usr/bin/../lib/gcc/arm-linux-gnueabihf/6.3.0/../../../../include/c++/6.3.0/bits/basic_string.h:142:51
	add	r5, r0, #8
.Ltmp153:
	.loc	3 110 25                @ /usr/bin/../lib/gcc/arm-linux-gnueabihf/6.3.0/../../../../include/c++/6.3.0/bits/basic_string.h:110:25
	str	r5, [sp, #152]
.Ltmp154:
	.loc	25 215 12               @ /usr/bin/../lib/gcc/arm-linux-gnueabihf/6.3.0/../../../../include/c++/6.3.0/bits/basic_string.tcc:215:12
	str	r1, [r11, #-24]
.Ltmp155:
	.loc	25 219 14               @ /usr/bin/../lib/gcc/arm-linux-gnueabihf/6.3.0/../../../../include/c++/6.3.0/bits/basic_string.tcc:219:14
.Ltmp21:
	sub	r1, r11, #24
.Ltmp156:
	@DEBUG_VALUE: _M_construct<const char *>:__dnew <- [%R1+0]
	mov	r2, #0
	mov	r4, #0
	bl	_ZNSt7__cxx1112basic_stringIcSt11char_traitsIcESaIcEE9_M_createERjj
.Ltmp157:
.Ltmp22:
.Ltmp158:
@ BB#18:                                @ %.noexc54
	.loc	6 290 33                @ /usr/bin/../lib/gcc/arm-linux-gnueabihf/6.3.0/../../../../include/c++/6.3.0/bits/char_traits.h:290:33
	movw	r2, :lower16:.L.str.5
.Ltmp159:
	.loc	25 220 18               @ /usr/bin/../lib/gcc/arm-linux-gnueabihf/6.3.0/../../../../include/c++/6.3.0/bits/basic_string.tcc:220:18
	ldr	r1, [r11, #-24]
.Ltmp160:
	@DEBUG_VALUE: _M_capacity:__capacity <- %R1
	@DEBUG_VALUE: _M_set_length:__n <- %R1
	@DEBUG_VALUE: _M_length:__length <- %R1
	@DEBUG_VALUE: _M_construct<const char *>:__dnew <- %R1
	.loc	6 290 33                @ /usr/bin/../lib/gcc/arm-linux-gnueabihf/6.3.0/../../../../include/c++/6.3.0/bits/char_traits.h:290:33
	movt	r2, :upper16:.L.str.5
	vld1.64	{d16, d17}, [r2]
	mov	r2, #102
.Ltmp161:
	.loc	3 128 26                @ /usr/bin/../lib/gcc/arm-linux-gnueabihf/6.3.0/../../../../include/c++/6.3.0/bits/basic_string.h:128:26
	str	r0, [sp, #152]
.Ltmp162:
	@DEBUG_VALUE: _M_data:__p <- %R0
	.loc	3 160 31                @ /usr/bin/../lib/gcc/arm-linux-gnueabihf/6.3.0/../../../../include/c++/6.3.0/bits/basic_string.h:160:31
	str	r1, [sp, #160]
.Ltmp163:
	@DEBUG_VALUE: _S_copy:__d <- %R0
	@DEBUG_VALUE: _S_copy:__n <- 19
	.loc	6 290 33                @ /usr/bin/../lib/gcc/arm-linux-gnueabihf/6.3.0/../../../../include/c++/6.3.0/bits/char_traits.h:290:33
	strb	r2, [r0, #18]
	movw	r2, #26223
	vst1.8	{d16, d17}, [r0]!
.Ltmp164:
	strh	r2, [r0]
.Ltmp165:
	.loc	3 132 26                @ /usr/bin/../lib/gcc/arm-linux-gnueabihf/6.3.0/../../../../include/c++/6.3.0/bits/basic_string.h:132:26
	str	r1, [sp, #156]
.Ltmp166:
	.loc	3 136 28                @ /usr/bin/../lib/gcc/arm-linux-gnueabihf/6.3.0/../../../../include/c++/6.3.0/bits/basic_string.h:136:28
	ldr	r0, [sp, #152]
.Ltmp167:
	.loc	6 243 14                @ /usr/bin/../lib/gcc/arm-linux-gnueabihf/6.3.0/../../../../include/c++/6.3.0/bits/char_traits.h:243:14
	strb	r4, [r0, r1]
.Ltmp168:
	.loc	1 35 15 discriminator 1 @ /root/Bela/projects/Library_LCD_I2C_v1.0/render.cpp:35:15
.Ltmp24:
	movw	r0, :lower16:myDisplay
	add	r3, sp, #152
.Ltmp169:
	@DEBUG_VALUE: _M_data:this <- %R3
	@DEBUG_VALUE: _M_length:this <- %R3
	@DEBUG_VALUE: _M_set_length:this <- %R3
	@DEBUG_VALUE: _M_data:this <- %R3
	@DEBUG_VALUE: _M_capacity:this <- %R3
	@DEBUG_VALUE: _M_data:this <- %R3
	movt	r0, :upper16:myDisplay
	mov	r1, #0
.Ltmp170:
	mov	r2, #0
	bl	_ZN7LCD_I2C14setCursorWriteEhhNSt7__cxx1112basic_stringIcSt11char_traitsIcESaIcEEE
.Ltmp171:
.Ltmp25:
.Ltmp172:
	@DEBUG_VALUE: _S_copy:__s <- %R2
@ BB#19:
	@DEBUG_VALUE: _S_copy:__s <- %R2
	.loc	3 136 28                @ /usr/bin/../lib/gcc/arm-linux-gnueabihf/6.3.0/../../../../include/c++/6.3.0/bits/basic_string.h:136:28
	ldr	r0, [sp, #152]
.Ltmp173:
	@DEBUG_VALUE: deallocate:__p <- %R0
	@DEBUG_VALUE: deallocate:__p <- %R0
	.loc	3 180 6                 @ /usr/bin/../lib/gcc/arm-linux-gnueabihf/6.3.0/../../../../include/c++/6.3.0/bits/basic_string.h:180:6
	cmp	r0, r5
	beq	.LBB0_21
.Ltmp174:
@ BB#20:
	@DEBUG_VALUE: deallocate:__p <- %R0
	@DEBUG_VALUE: deallocate:__p <- %R0
	@DEBUG_VALUE: _S_copy:__s <- %R2
	.loc	24 110 9                @ /usr/bin/../lib/gcc/arm-linux-gnueabihf/6.3.0/../../../../include/c++/6.3.0/ext/new_allocator.h:110:9
	bl	_ZdlPv
.Ltmp175:
.LBB0_21:                               @ %_ZNSt7__cxx1112basic_stringIcSt11char_traitsIcESaIcEED2Ev.exit56
	.loc	1 36 12                 @ /root/Bela/projects/Library_LCD_I2C_v1.0/render.cpp:36:12
	movw	r4, :lower16:myDisplay
	movt	r4, :upper16:myDisplay
	mov	r0, r4
	bl	_ZN7LCD_I2C7noBlinkEv
	.loc	1 37 15                 @ /root/Bela/projects/Library_LCD_I2C_v1.0/render.cpp:37:15
	mov	r0, r4
	mov	r1, #1
	mov	r2, #0
	mov	r5, #0
	bl	_ZN7LCD_I2C9setCursorEhh
	.loc	1 38 5                  @ /root/Bela/projects/Library_LCD_I2C_v1.0/render.cpp:38:5
	mov	r0, #1
	bl	sleep
	.loc	1 39 15                 @ /root/Bela/projects/Library_LCD_I2C_v1.0/render.cpp:39:15
	mov	r0, r4
	mov	r1, #1
	mov	r2, #1
	bl	_ZN7LCD_I2C9setCursorEhh
	.loc	1 40 5                  @ /root/Bela/projects/Library_LCD_I2C_v1.0/render.cpp:40:5
	mov	r0, #1
	bl	sleep
	.loc	1 41 15                 @ /root/Bela/projects/Library_LCD_I2C_v1.0/render.cpp:41:15
	mov	r0, r4
	mov	r1, #1
	mov	r2, #2
	bl	_ZN7LCD_I2C9setCursorEhh
	.loc	1 42 5                  @ /root/Bela/projects/Library_LCD_I2C_v1.0/render.cpp:42:5
	mov	r0, #1
	bl	sleep
	.loc	1 43 15                 @ /root/Bela/projects/Library_LCD_I2C_v1.0/render.cpp:43:15
	mov	r0, r4
	mov	r1, #1
	mov	r2, #3
	bl	_ZN7LCD_I2C9setCursorEhh
	.loc	1 44 5                  @ /root/Bela/projects/Library_LCD_I2C_v1.0/render.cpp:44:5
	mov	r0, #2
	bl	sleep
	add	r0, sp, #128
.Ltmp176:
	@DEBUG_VALUE: _M_construct<const char *>:this <- %R0
	@DEBUG_VALUE: _M_construct_aux<const char *>:this <- %R0
	@DEBUG_VALUE: _M_construct<const char *>:this <- %R0
	@DEBUG_VALUE: _M_local_data:this <- %R0
	.loc	25 215 12               @ /usr/bin/../lib/gcc/arm-linux-gnueabihf/6.3.0/../../../../include/c++/6.3.0/bits/basic_string.tcc:215:12
	mov	r1, #19
.Ltmp177:
	@DEBUG_VALUE: _M_construct<const char *>:__dnew <- 19
	.loc	3 142 51                @ /usr/bin/../lib/gcc/arm-linux-gnueabihf/6.3.0/../../../../include/c++/6.3.0/bits/basic_string.h:142:51
	add	r6, r0, #8
.Ltmp178:
	.loc	3 110 25                @ /usr/bin/../lib/gcc/arm-linux-gnueabihf/6.3.0/../../../../include/c++/6.3.0/bits/basic_string.h:110:25
	str	r6, [sp, #128]
.Ltmp179:
	.loc	25 215 12               @ /usr/bin/../lib/gcc/arm-linux-gnueabihf/6.3.0/../../../../include/c++/6.3.0/bits/basic_string.tcc:215:12
	str	r1, [sp, #32]
.Ltmp180:
	.loc	25 219 14               @ /usr/bin/../lib/gcc/arm-linux-gnueabihf/6.3.0/../../../../include/c++/6.3.0/bits/basic_string.tcc:219:14
.Ltmp27:
	add	r1, sp, #32
.Ltmp181:
	@DEBUG_VALUE: _M_construct<const char *>:__dnew <- [%R1+0]
	mov	r2, #0
	bl	_ZNSt7__cxx1112basic_stringIcSt11char_traitsIcESaIcEE9_M_createERjj
.Ltmp182:
.Ltmp28:
.Ltmp183:
@ BB#22:                                @ %.noexc62
	.loc	6 290 33                @ /usr/bin/../lib/gcc/arm-linux-gnueabihf/6.3.0/../../../../include/c++/6.3.0/bits/char_traits.h:290:33
	movw	r2, :lower16:.L.str.6
.Ltmp184:
	.loc	25 220 18               @ /usr/bin/../lib/gcc/arm-linux-gnueabihf/6.3.0/../../../../include/c++/6.3.0/bits/basic_string.tcc:220:18
	ldr	r1, [sp, #32]
.Ltmp185:
	@DEBUG_VALUE: _M_capacity:__capacity <- %R1
	@DEBUG_VALUE: _M_set_length:__n <- %R1
	@DEBUG_VALUE: _M_length:__length <- %R1
	@DEBUG_VALUE: _M_construct<const char *>:__dnew <- %R1
	.loc	6 290 33                @ /usr/bin/../lib/gcc/arm-linux-gnueabihf/6.3.0/../../../../include/c++/6.3.0/bits/char_traits.h:290:33
	movt	r2, :upper16:.L.str.6
	vld1.64	{d16, d17}, [r2]
	mov	r2, #102
.Ltmp186:
	.loc	3 128 26                @ /usr/bin/../lib/gcc/arm-linux-gnueabihf/6.3.0/../../../../include/c++/6.3.0/bits/basic_string.h:128:26
	str	r0, [sp, #128]
.Ltmp187:
	@DEBUG_VALUE: _M_data:__p <- %R0
	.loc	3 160 31                @ /usr/bin/../lib/gcc/arm-linux-gnueabihf/6.3.0/../../../../include/c++/6.3.0/bits/basic_string.h:160:31
	str	r1, [sp, #136]
.Ltmp188:
	@DEBUG_VALUE: _S_copy:__d <- %R0
	@DEBUG_VALUE: _S_copy:__n <- 19
	.loc	6 290 33                @ /usr/bin/../lib/gcc/arm-linux-gnueabihf/6.3.0/../../../../include/c++/6.3.0/bits/char_traits.h:290:33
	strb	r2, [r0, #18]
	movw	r2, #26223
	vst1.8	{d16, d17}, [r0]!
.Ltmp189:
	strh	r2, [r0]
.Ltmp190:
	.loc	3 132 26                @ /usr/bin/../lib/gcc/arm-linux-gnueabihf/6.3.0/../../../../include/c++/6.3.0/bits/basic_string.h:132:26
	str	r1, [sp, #132]
.Ltmp191:
	.loc	3 136 28                @ /usr/bin/../lib/gcc/arm-linux-gnueabihf/6.3.0/../../../../include/c++/6.3.0/bits/basic_string.h:136:28
	ldr	r0, [sp, #128]
.Ltmp192:
	.loc	6 243 14                @ /usr/bin/../lib/gcc/arm-linux-gnueabihf/6.3.0/../../../../include/c++/6.3.0/bits/char_traits.h:243:14
	strb	r5, [r0, r1]
.Ltmp193:
	.loc	1 46 15 discriminator 1 @ /root/Bela/projects/Library_LCD_I2C_v1.0/render.cpp:46:15
.Ltmp30:
	movw	r0, :lower16:myDisplay
	add	r3, sp, #128
.Ltmp194:
	@DEBUG_VALUE: _M_data:this <- %R3
	@DEBUG_VALUE: _M_length:this <- %R3
	@DEBUG_VALUE: _M_set_length:this <- %R3
	@DEBUG_VALUE: _M_data:this <- %R3
	@DEBUG_VALUE: _M_capacity:this <- %R3
	@DEBUG_VALUE: _M_data:this <- %R3
	movt	r0, :upper16:myDisplay
	mov	r1, #0
.Ltmp195:
	mov	r2, #0
	bl	_ZN7LCD_I2C14setCursorWriteEhhNSt7__cxx1112basic_stringIcSt11char_traitsIcESaIcEEE
.Ltmp196:
.Ltmp31:
.Ltmp197:
	@DEBUG_VALUE: _S_copy:__s <- %R2
@ BB#23:
	@DEBUG_VALUE: _S_copy:__s <- %R2
	.loc	3 136 28                @ /usr/bin/../lib/gcc/arm-linux-gnueabihf/6.3.0/../../../../include/c++/6.3.0/bits/basic_string.h:136:28
	ldr	r0, [sp, #128]
.Ltmp198:
	@DEBUG_VALUE: deallocate:__p <- %R0
	@DEBUG_VALUE: deallocate:__p <- %R0
	.loc	3 180 6                 @ /usr/bin/../lib/gcc/arm-linux-gnueabihf/6.3.0/../../../../include/c++/6.3.0/bits/basic_string.h:180:6
	cmp	r0, r6
	beq	.LBB0_25
.Ltmp199:
@ BB#24:
	@DEBUG_VALUE: deallocate:__p <- %R0
	@DEBUG_VALUE: deallocate:__p <- %R0
	@DEBUG_VALUE: _S_copy:__s <- %R2
	.loc	24 110 9                @ /usr/bin/../lib/gcc/arm-linux-gnueabihf/6.3.0/../../../../include/c++/6.3.0/ext/new_allocator.h:110:9
	bl	_ZdlPv
.Ltmp200:
.LBB0_25:                               @ %_ZNSt7__cxx1112basic_stringIcSt11char_traitsIcESaIcEED2Ev.exit64
	.loc	1 47 12                 @ /root/Bela/projects/Library_LCD_I2C_v1.0/render.cpp:47:12
	movw	r4, :lower16:myDisplay
	movt	r4, :upper16:myDisplay
	mov	r0, r4
	bl	_ZN7LCD_I2C5blinkEv
	.loc	1 48 12                 @ /root/Bela/projects/Library_LCD_I2C_v1.0/render.cpp:48:12
	mov	r0, r4
	bl	_ZN7LCD_I2C8noCursorEv
	.loc	1 49 15                 @ /root/Bela/projects/Library_LCD_I2C_v1.0/render.cpp:49:15
	mov	r0, r4
	mov	r1, #1
	mov	r2, #0
	mov	r5, #0
	bl	_ZN7LCD_I2C9setCursorEhh
	.loc	1 50 5                  @ /root/Bela/projects/Library_LCD_I2C_v1.0/render.cpp:50:5
	mov	r0, #1
	bl	sleep
	.loc	1 51 15                 @ /root/Bela/projects/Library_LCD_I2C_v1.0/render.cpp:51:15
	mov	r0, r4
	mov	r1, #1
	mov	r2, #1
	bl	_ZN7LCD_I2C9setCursorEhh
	.loc	1 52 5                  @ /root/Bela/projects/Library_LCD_I2C_v1.0/render.cpp:52:5
	mov	r0, #1
	bl	sleep
	.loc	1 53 15                 @ /root/Bela/projects/Library_LCD_I2C_v1.0/render.cpp:53:15
	mov	r0, r4
	mov	r1, #1
	mov	r2, #2
	bl	_ZN7LCD_I2C9setCursorEhh
	.loc	1 54 5                  @ /root/Bela/projects/Library_LCD_I2C_v1.0/render.cpp:54:5
	mov	r0, #1
	bl	sleep
	.loc	1 55 15                 @ /root/Bela/projects/Library_LCD_I2C_v1.0/render.cpp:55:15
	mov	r0, r4
	mov	r1, #1
	mov	r2, #3
	bl	_ZN7LCD_I2C9setCursorEhh
	.loc	1 56 5                  @ /root/Bela/projects/Library_LCD_I2C_v1.0/render.cpp:56:5
	mov	r0, #2
	bl	sleep
	.loc	1 59 15                 @ /root/Bela/projects/Library_LCD_I2C_v1.0/render.cpp:59:15
	mov	r0, r4
	bl	_ZN7LCD_I2C5clearEv
	add	r3, sp, #104
.Ltmp201:
	@DEBUG_VALUE: _M_data:this <- %R3
	@DEBUG_VALUE: _M_length:this <- %R3
	@DEBUG_VALUE: _M_set_length:__n <- 7
	@DEBUG_VALUE: _M_set_length:this <- %R3
	@DEBUG_VALUE: _M_data:this <- %R3
	@DEBUG_VALUE: _M_construct<const char *>:__dnew <- 7
	@DEBUG_VALUE: _M_construct<const char *>:this <- %R3
	@DEBUG_VALUE: _M_construct_aux<const char *>:this <- %R3
	@DEBUG_VALUE: _M_construct<const char *>:this <- %R3
	@DEBUG_VALUE: _S_copy_chars:__p <- %R6
	@DEBUG_VALUE: _S_copy:__d <- %R6
	@DEBUG_VALUE: _M_local_data:this <- %R3
	.loc	6 290 33                @ /usr/bin/../lib/gcc/arm-linux-gnueabihf/6.3.0/../../../../include/c++/6.3.0/bits/char_traits.h:290:33
	mov	r0, #103
.Ltmp202:
	@DEBUG_VALUE: _S_copy:__n <- 7
	.loc	3 142 51                @ /usr/bin/../lib/gcc/arm-linux-gnueabihf/6.3.0/../../../../include/c++/6.3.0/bits/basic_string.h:142:51
	add	r6, r3, #8
.Ltmp203:
	.loc	3 110 25                @ /usr/bin/../lib/gcc/arm-linux-gnueabihf/6.3.0/../../../../include/c++/6.3.0/bits/basic_string.h:110:25
	str	r6, [sp, #104]
.Ltmp204:
	.loc	6 290 33                @ /usr/bin/../lib/gcc/arm-linux-gnueabihf/6.3.0/../../../../include/c++/6.3.0/bits/char_traits.h:290:33
	strb	r0, [sp, #118]
	movw	r0, #28265
	strh	r0, [sp, #116]
	movw	r0, #29271
	movt	r0, #29801
	str	r0, [sp, #112]
	mov	r0, #7
.Ltmp205:
	@DEBUG_VALUE: _M_length:__length <- 7
	.loc	3 132 26                @ /usr/bin/../lib/gcc/arm-linux-gnueabihf/6.3.0/../../../../include/c++/6.3.0/bits/basic_string.h:132:26
	str	r0, [sp, #108]
.Ltmp206:
	.loc	6 243 14                @ /usr/bin/../lib/gcc/arm-linux-gnueabihf/6.3.0/../../../../include/c++/6.3.0/bits/char_traits.h:243:14
	strb	r5, [sp, #119]
.Ltmp207:
	.loc	1 60 15 discriminator 1 @ /root/Bela/projects/Library_LCD_I2C_v1.0/render.cpp:60:15
.Ltmp33:
	mov	r0, r4
	mov	r1, #0
	mov	r2, #0
	bl	_ZN7LCD_I2C14setCursorWriteEhhNSt7__cxx1112basic_stringIcSt11char_traitsIcESaIcEEE
.Ltmp208:
.Ltmp34:
@ BB#26:
.Ltmp209:
	.loc	3 136 28                @ /usr/bin/../lib/gcc/arm-linux-gnueabihf/6.3.0/../../../../include/c++/6.3.0/bits/basic_string.h:136:28
	ldr	r0, [sp, #104]
.Ltmp210:
	@DEBUG_VALUE: deallocate:__p <- %R0
	@DEBUG_VALUE: deallocate:__p <- %R0
	.loc	3 180 6                 @ /usr/bin/../lib/gcc/arm-linux-gnueabihf/6.3.0/../../../../include/c++/6.3.0/bits/basic_string.h:180:6
	cmp	r0, r6
	beq	.LBB0_28
.Ltmp211:
@ BB#27:
	@DEBUG_VALUE: deallocate:__p <- %R0
	@DEBUG_VALUE: deallocate:__p <- %R0
	.loc	24 110 9                @ /usr/bin/../lib/gcc/arm-linux-gnueabihf/6.3.0/../../../../include/c++/6.3.0/ext/new_allocator.h:110:9
	bl	_ZdlPv
.Ltmp212:
.LBB0_28:                               @ %_ZNSt7__cxx1112basic_stringIcSt11char_traitsIcESaIcEED2Ev.exit72
	.loc	1 61 5                  @ /root/Bela/projects/Library_LCD_I2C_v1.0/render.cpp:61:5
	mov	r0, #1
	bl	sleep
	add	r3, sp, #80
.Ltmp213:
	@DEBUG_VALUE: _M_data:this <- %R3
	@DEBUG_VALUE: _M_length:this <- %R3
	@DEBUG_VALUE: _M_set_length:__n <- 5
	@DEBUG_VALUE: _M_set_length:this <- %R3
	@DEBUG_VALUE: _M_data:this <- %R3
	@DEBUG_VALUE: _M_construct<const char *>:__dnew <- 5
	@DEBUG_VALUE: _M_construct<const char *>:this <- %R3
	@DEBUG_VALUE: _M_construct_aux<const char *>:this <- %R3
	@DEBUG_VALUE: _M_construct<const char *>:this <- %R3
	@DEBUG_VALUE: _S_copy_chars:__p <- %R5
	@DEBUG_VALUE: _S_copy:__d <- %R5
	@DEBUG_VALUE: _M_local_data:this <- %R3
	.loc	6 290 33                @ /usr/bin/../lib/gcc/arm-linux-gnueabihf/6.3.0/../../../../include/c++/6.3.0/bits/char_traits.h:290:33
	mov	r0, #101
.Ltmp214:
	@DEBUG_VALUE: _S_copy:__n <- 5
	.loc	3 142 51                @ /usr/bin/../lib/gcc/arm-linux-gnueabihf/6.3.0/../../../../include/c++/6.3.0/bits/basic_string.h:142:51
	add	r5, r3, #8
.Ltmp215:
	.loc	3 110 25                @ /usr/bin/../lib/gcc/arm-linux-gnueabihf/6.3.0/../../../../include/c++/6.3.0/bits/basic_string.h:110:25
	str	r5, [sp, #80]
.Ltmp216:
	.loc	6 290 33                @ /usr/bin/../lib/gcc/arm-linux-gnueabihf/6.3.0/../../../../include/c++/6.3.0/bits/char_traits.h:290:33
	strb	r0, [sp, #92]
	movw	r0, #26743
	movt	r0, #29285
	str	r0, [sp, #88]
	mov	r0, #5
.Ltmp217:
	@DEBUG_VALUE: _M_length:__length <- 5
	.loc	3 132 26                @ /usr/bin/../lib/gcc/arm-linux-gnueabihf/6.3.0/../../../../include/c++/6.3.0/bits/basic_string.h:132:26
	str	r0, [sp, #84]
.Ltmp218:
	.loc	6 243 14                @ /usr/bin/../lib/gcc/arm-linux-gnueabihf/6.3.0/../../../../include/c++/6.3.0/bits/char_traits.h:243:14
	mov	r0, #0
	strb	r0, [sp, #93]
.Ltmp219:
	.loc	1 62 15 discriminator 1 @ /root/Bela/projects/Library_LCD_I2C_v1.0/render.cpp:62:15
.Ltmp36:
	movw	r0, :lower16:myDisplay
	mov	r1, #1
	movt	r0, :upper16:myDisplay
	mov	r2, #5
	bl	_ZN7LCD_I2C14setCursorWriteEhhNSt7__cxx1112basic_stringIcSt11char_traitsIcESaIcEEE
.Ltmp220:
.Ltmp37:
@ BB#29:
.Ltmp221:
	.loc	3 136 28                @ /usr/bin/../lib/gcc/arm-linux-gnueabihf/6.3.0/../../../../include/c++/6.3.0/bits/basic_string.h:136:28
	ldr	r0, [sp, #80]
.Ltmp222:
	@DEBUG_VALUE: deallocate:__p <- %R0
	@DEBUG_VALUE: deallocate:__p <- %R0
	.loc	3 180 6                 @ /usr/bin/../lib/gcc/arm-linux-gnueabihf/6.3.0/../../../../include/c++/6.3.0/bits/basic_string.h:180:6
	cmp	r0, r5
	beq	.LBB0_31
.Ltmp223:
@ BB#30:
	@DEBUG_VALUE: deallocate:__p <- %R0
	@DEBUG_VALUE: deallocate:__p <- %R0
	.loc	24 110 9                @ /usr/bin/../lib/gcc/arm-linux-gnueabihf/6.3.0/../../../../include/c++/6.3.0/ext/new_allocator.h:110:9
	bl	_ZdlPv
.Ltmp224:
.LBB0_31:                               @ %_ZNSt7__cxx1112basic_stringIcSt11char_traitsIcESaIcEED2Ev.exit80
	.loc	1 63 5                  @ /root/Bela/projects/Library_LCD_I2C_v1.0/render.cpp:63:5
	mov	r0, #1
	bl	sleep
.Ltmp225:
	.loc	6 290 33                @ /usr/bin/../lib/gcc/arm-linux-gnueabihf/6.3.0/../../../../include/c++/6.3.0/bits/char_traits.h:290:33
	movw	r0, #26999
	add	r3, sp, #56
.Ltmp226:
	@DEBUG_VALUE: _M_data:this <- %R3
	@DEBUG_VALUE: _M_length:this <- %R3
	@DEBUG_VALUE: _M_set_length:__n <- 8
	@DEBUG_VALUE: _M_set_length:this <- %R3
	@DEBUG_VALUE: _M_data:this <- %R3
	@DEBUG_VALUE: _M_construct<const char *>:__dnew <- 8
	@DEBUG_VALUE: _M_construct<const char *>:this <- %R3
	@DEBUG_VALUE: _M_construct_aux<const char *>:this <- %R3
	@DEBUG_VALUE: _M_construct<const char *>:this <- %R3
	@DEBUG_VALUE: _M_local_data:this <- %R3
	movt	r0, #26739
.Ltmp227:
	@DEBUG_VALUE: _S_copy:__n <- 8
	.loc	3 142 51                @ /usr/bin/../lib/gcc/arm-linux-gnueabihf/6.3.0/../../../../include/c++/6.3.0/bits/basic_string.h:142:51
	add	r5, r3, #8
.Ltmp228:
	.loc	3 110 25                @ /usr/bin/../lib/gcc/arm-linux-gnueabihf/6.3.0/../../../../include/c++/6.3.0/bits/basic_string.h:110:25
	str	r5, [sp, #56]
.Ltmp229:
	.loc	6 290 33                @ /usr/bin/../lib/gcc/arm-linux-gnueabihf/6.3.0/../../../../include/c++/6.3.0/bits/char_traits.h:290:33
	str	r0, [sp, #68]
	movw	r0, #28537
	movt	r0, #8309
	str	r0, [sp, #64]
	mov	r0, #8
.Ltmp230:
	@DEBUG_VALUE: _M_length:__length <- 8
	.loc	3 132 26                @ /usr/bin/../lib/gcc/arm-linux-gnueabihf/6.3.0/../../../../include/c++/6.3.0/bits/basic_string.h:132:26
	str	r0, [sp, #60]
.Ltmp231:
	.loc	6 243 14                @ /usr/bin/../lib/gcc/arm-linux-gnueabihf/6.3.0/../../../../include/c++/6.3.0/bits/char_traits.h:243:14
	mov	r0, #0
	strb	r0, [sp, #72]
.Ltmp232:
	.loc	1 64 15 discriminator 1 @ /root/Bela/projects/Library_LCD_I2C_v1.0/render.cpp:64:15
.Ltmp39:
	movw	r0, :lower16:myDisplay
	mov	r1, #2
	movt	r0, :upper16:myDisplay
	mov	r2, #10
	bl	_ZN7LCD_I2C14setCursorWriteEhhNSt7__cxx1112basic_stringIcSt11char_traitsIcESaIcEEE
.Ltmp233:
.Ltmp40:
@ BB#32:
.Ltmp234:
	.loc	3 136 28                @ /usr/bin/../lib/gcc/arm-linux-gnueabihf/6.3.0/../../../../include/c++/6.3.0/bits/basic_string.h:136:28
	ldr	r0, [sp, #56]
.Ltmp235:
	@DEBUG_VALUE: deallocate:__p <- %R0
	@DEBUG_VALUE: deallocate:__p <- %R0
	.loc	3 180 6                 @ /usr/bin/../lib/gcc/arm-linux-gnueabihf/6.3.0/../../../../include/c++/6.3.0/bits/basic_string.h:180:6
	cmp	r0, r5
	beq	.LBB0_34
.Ltmp236:
@ BB#33:
	@DEBUG_VALUE: deallocate:__p <- %R0
	@DEBUG_VALUE: deallocate:__p <- %R0
	.loc	24 110 9                @ /usr/bin/../lib/gcc/arm-linux-gnueabihf/6.3.0/../../../../include/c++/6.3.0/ext/new_allocator.h:110:9
	bl	_ZdlPv
.Ltmp237:
.LBB0_34:                               @ %_ZNSt7__cxx1112basic_stringIcSt11char_traitsIcESaIcEED2Ev.exit88
	.loc	1 65 15                 @ /root/Bela/projects/Library_LCD_I2C_v1.0/render.cpp:65:15
	movw	r0, :lower16:myDisplay
	movt	r0, :upper16:myDisplay
	bl	_ZN7LCD_I2C7noBlinkEv
	.loc	1 66 5                  @ /root/Bela/projects/Library_LCD_I2C_v1.0/render.cpp:66:5
	mov	r0, #1
	bl	sleep
	.loc	1 71 2                  @ /root/Bela/projects/Library_LCD_I2C_v1.0/render.cpp:71:2
	movw	r1, #56524
	add	r4, sp, #32
.Ltmp238:
	@DEBUG_VALUE: setup:buffer <- [%R4+0]
	@DEBUG_VALUE: basic_string:__s <- %R4
	@DEBUG_VALUE: length:__s <- %R4
	@DEBUG_VALUE: _M_construct<const char *>:__beg <- %R4
	@DEBUG_VALUE: _M_construct_aux<const char *>:__beg <- %R4
	@DEBUG_VALUE: _M_construct<const char *>:__beg <- %R4
	@DEBUG_VALUE: _S_copy_chars:__k1 <- %R4
	@DEBUG_VALUE: _S_copy:__s <- %R4
	@DEBUG_VALUE: assign:__c2 <- %R4
	@DEBUG_VALUE: setup:value <- 1.234500e+02
	movw	r2, :lower16:.L.str.10
	movt	r1, #16478
	mov	r0, #-1073741824
	movt	r2, :upper16:.L.str.10
	strd	r0, r1, [sp]
	mov	r0, r4
	mov	r1, #20
	bl	snprintf
	add	r0, sp, #8
.Ltmp239:
	@DEBUG_VALUE: _M_construct<const char *>:this <- %R0
	@DEBUG_VALUE: _M_construct_aux<const char *>:this <- %R0
	@DEBUG_VALUE: _M_construct<const char *>:this <- %R0
	@DEBUG_VALUE: _M_local_data:this <- %R0
	.loc	3 142 51                @ /usr/bin/../lib/gcc/arm-linux-gnueabihf/6.3.0/../../../../include/c++/6.3.0/bits/basic_string.h:142:51
	add	r5, r0, #8
.Ltmp240:
	.loc	6 267 16                @ /usr/bin/../lib/gcc/arm-linux-gnueabihf/6.3.0/../../../../include/c++/6.3.0/bits/char_traits.h:267:16
	mov	r0, r4
.Ltmp241:
	.loc	3 110 25                @ /usr/bin/../lib/gcc/arm-linux-gnueabihf/6.3.0/../../../../include/c++/6.3.0/bits/basic_string.h:110:25
	str	r5, [sp, #8]
.Ltmp242:
	.loc	6 267 16                @ /usr/bin/../lib/gcc/arm-linux-gnueabihf/6.3.0/../../../../include/c++/6.3.0/bits/char_traits.h:267:16
	bl	strlen
	mov	r4, r0
.Ltmp243:
	@DEBUG_VALUE: _M_construct<const char *>:__dnew <- %R4
	@DEBUG_VALUE: _S_copy:__n <- %R4
	.loc	25 217 6                @ /usr/bin/../lib/gcc/arm-linux-gnueabihf/6.3.0/../../../../include/c++/6.3.0/bits/basic_string.tcc:217:6
	cmp	r4, #15
	.loc	25 215 12               @ /usr/bin/../lib/gcc/arm-linux-gnueabihf/6.3.0/../../../../include/c++/6.3.0/bits/basic_string.tcc:215:12
	str	r4, [r11, #-20]
	bls	.LBB0_37
.Ltmp244:
@ BB#35:                                @ %.noexc8.i92
	@DEBUG_VALUE: _S_copy:__n <- %R4
	@DEBUG_VALUE: _M_construct<const char *>:__dnew <- %R4
	.loc	25 219 14               @ /usr/bin/../lib/gcc/arm-linux-gnueabihf/6.3.0/../../../../include/c++/6.3.0/bits/basic_string.tcc:219:14
.Ltmp42:
	add	r0, sp, #8
	sub	r1, r11, #20
.Ltmp245:
	@DEBUG_VALUE: _M_construct<const char *>:__dnew <- [%R1+0]
	mov	r2, #0
	bl	_ZNSt7__cxx1112basic_stringIcSt11char_traitsIcESaIcEE9_M_createERjj
.Ltmp246:
.Ltmp43:
.Ltmp247:
@ BB#36:                                @ %.noexc94
	@DEBUG_VALUE: _S_copy:__n <- %R4
	@DEBUG_VALUE: _M_data:__p <- %R0
	.loc	25 220 18               @ /usr/bin/../lib/gcc/arm-linux-gnueabihf/6.3.0/../../../../include/c++/6.3.0/bits/basic_string.tcc:220:18
	ldr	r1, [r11, #-20]
.Ltmp248:
	@DEBUG_VALUE: _M_capacity:__capacity <- %R1
	@DEBUG_VALUE: _M_construct<const char *>:__dnew <- %R1
	.loc	3 128 26                @ /usr/bin/../lib/gcc/arm-linux-gnueabihf/6.3.0/../../../../include/c++/6.3.0/bits/basic_string.h:128:26
	str	r0, [sp, #8]
.Ltmp249:
	.loc	3 160 31                @ /usr/bin/../lib/gcc/arm-linux-gnueabihf/6.3.0/../../../../include/c++/6.3.0/bits/basic_string.h:160:31
	str	r1, [sp, #16]
	b	.LBB0_38
.Ltmp250:
.LBB0_37:                               @ %._crit_edge.i.i.i.i91
	@DEBUG_VALUE: _S_copy:__n <- %R4
	@DEBUG_VALUE: _M_construct<const char *>:__dnew <- %R4
	.loc	3 136 28                @ /usr/bin/../lib/gcc/arm-linux-gnueabihf/6.3.0/../../../../include/c++/6.3.0/bits/basic_string.h:136:28
	mov	r0, r5
.Ltmp251:
.LBB0_38:
	@DEBUG_VALUE: _S_copy:__n <- %R4
	.loc	3 297 6                 @ /usr/bin/../lib/gcc/arm-linux-gnueabihf/6.3.0/../../../../include/c++/6.3.0/bits/basic_string.h:297:6
	cmp	r4, #0
	beq	.LBB0_42
.Ltmp252:
@ BB#39:
	@DEBUG_VALUE: _S_copy:__n <- %R4
	cmp	r4, #1
	bne	.LBB0_41
.Ltmp253:
@ BB#40:
	@DEBUG_VALUE: _S_copy:__n <- %R4
	.loc	6 243 16                @ /usr/bin/../lib/gcc/arm-linux-gnueabihf/6.3.0/../../../../include/c++/6.3.0/bits/char_traits.h:243:16
	ldrb	r1, [sp, #32]
	.loc	6 243 14 is_stmt 0      @ /usr/bin/../lib/gcc/arm-linux-gnueabihf/6.3.0/../../../../include/c++/6.3.0/bits/char_traits.h:243:14
	strb	r1, [r0]
.Ltmp254:
	@DEBUG_VALUE: _S_copy_chars:__p <- %R0
	b	.LBB0_42
.Ltmp255:
.LBB0_41:
	@DEBUG_VALUE: _S_copy:__n <- %R4
	add	r1, sp, #32
.Ltmp256:
	.loc	6 290 33 is_stmt 1      @ /usr/bin/../lib/gcc/arm-linux-gnueabihf/6.3.0/../../../../include/c++/6.3.0/bits/char_traits.h:290:33
	mov	r2, r4
	bl	memcpy
.Ltmp257:
.LBB0_42:
	@DEBUG_VALUE: _S_copy:__n <- %R4
	.loc	25 232 16               @ /usr/bin/../lib/gcc/arm-linux-gnueabihf/6.3.0/../../../../include/c++/6.3.0/bits/basic_string.tcc:232:16
	ldr	r0, [r11, #-20]
.Ltmp258:
	@DEBUG_VALUE: _M_set_length:__n <- %R0
	@DEBUG_VALUE: _M_length:__length <- %R0
	@DEBUG_VALUE: _M_construct<const char *>:__dnew <- %R0
	mov	r2, #0
.Ltmp259:
	.loc	3 132 26                @ /usr/bin/../lib/gcc/arm-linux-gnueabihf/6.3.0/../../../../include/c++/6.3.0/bits/basic_string.h:132:26
	str	r0, [sp, #12]
.Ltmp260:
	.loc	3 136 28                @ /usr/bin/../lib/gcc/arm-linux-gnueabihf/6.3.0/../../../../include/c++/6.3.0/bits/basic_string.h:136:28
	ldr	r1, [sp, #8]
.Ltmp261:
	.loc	6 243 14                @ /usr/bin/../lib/gcc/arm-linux-gnueabihf/6.3.0/../../../../include/c++/6.3.0/bits/char_traits.h:243:14
	strb	r2, [r1, r0]
.Ltmp262:
	.loc	1 72 12 discriminator 1 @ /root/Bela/projects/Library_LCD_I2C_v1.0/render.cpp:72:12
.Ltmp45:
	movw	r0, :lower16:myDisplay
.Ltmp263:
	add	r3, sp, #8
.Ltmp264:
	@DEBUG_VALUE: _M_data:this <- %R3
	@DEBUG_VALUE: _M_length:this <- %R3
	movt	r0, :upper16:myDisplay
	mov	r1, #3
	mov	r2, #0
	bl	_ZN7LCD_I2C14setCursorWriteEhhNSt7__cxx1112basic_stringIcSt11char_traitsIcESaIcEEE
.Ltmp265:
.Ltmp46:
.Ltmp266:
@ BB#43:
	@DEBUG_VALUE: _S_copy:__n <- %R4
	.loc	3 136 28                @ /usr/bin/../lib/gcc/arm-linux-gnueabihf/6.3.0/../../../../include/c++/6.3.0/bits/basic_string.h:136:28
	ldr	r0, [sp, #8]
.Ltmp267:
	@DEBUG_VALUE: deallocate:__p <- %R0
	@DEBUG_VALUE: deallocate:__p <- %R0
	.loc	3 180 6                 @ /usr/bin/../lib/gcc/arm-linux-gnueabihf/6.3.0/../../../../include/c++/6.3.0/bits/basic_string.h:180:6
	cmp	r0, r5
	beq	.LBB0_45
.Ltmp268:
@ BB#44:
	@DEBUG_VALUE: deallocate:__p <- %R0
	@DEBUG_VALUE: deallocate:__p <- %R0
	@DEBUG_VALUE: _S_copy:__n <- %R4
	.loc	24 110 9                @ /usr/bin/../lib/gcc/arm-linux-gnueabihf/6.3.0/../../../../include/c++/6.3.0/ext/new_allocator.h:110:9
	bl	_ZdlPv
.Ltmp269:
.LBB0_45:                               @ %_ZNSt7__cxx1112basic_stringIcSt11char_traitsIcESaIcEED2Ev.exit96
	@DEBUG_VALUE: _S_copy:__n <- %R4
	.loc	1 74 2                  @ /root/Bela/projects/Library_LCD_I2C_v1.0/render.cpp:74:2
	mov	r0, #1
	sub	sp, r11, #16
	pop	{r4, r5, r6, r10, r11, pc}
.Ltmp270:
.LBB0_46:
	@DEBUG_VALUE: _S_copy:__n <- %R4
.Ltmp44:
	mov	lr, pc
	b	_Unwind_Resume
.Ltmp271:
.LBB0_47:
	@DEBUG_VALUE: _S_copy:__n <- %R4
.Ltmp47:
	mov	r4, r0
.Ltmp272:
	.loc	3 136 28                @ /usr/bin/../lib/gcc/arm-linux-gnueabihf/6.3.0/../../../../include/c++/6.3.0/bits/basic_string.h:136:28
	ldr	r0, [sp, #8]
	b	.LBB0_63
.Ltmp273:
.LBB0_48:
.Ltmp41:
	mov	r4, r0
.Ltmp274:
	.loc	3 136 28 is_stmt 0      @ /usr/bin/../lib/gcc/arm-linux-gnueabihf/6.3.0/../../../../include/c++/6.3.0/bits/basic_string.h:136:28
	ldr	r0, [sp, #56]
	b	.LBB0_63
.Ltmp275:
.LBB0_49:
.Ltmp38:
	mov	r4, r0
.Ltmp276:
	.loc	3 136 28                @ /usr/bin/../lib/gcc/arm-linux-gnueabihf/6.3.0/../../../../include/c++/6.3.0/bits/basic_string.h:136:28
	ldr	r0, [sp, #80]
	b	.LBB0_63
.Ltmp277:
.LBB0_50:
.Ltmp35:
	mov	r4, r0
.Ltmp278:
	.loc	3 136 28                @ /usr/bin/../lib/gcc/arm-linux-gnueabihf/6.3.0/../../../../include/c++/6.3.0/bits/basic_string.h:136:28
	ldr	r0, [sp, #104]
	b	.LBB0_52
.Ltmp279:
.LBB0_51:
	@DEBUG_VALUE: _S_copy:__s <- %R2
.Ltmp32:
	mov	r4, r0
.Ltmp280:
	.loc	3 136 28                @ /usr/bin/../lib/gcc/arm-linux-gnueabihf/6.3.0/../../../../include/c++/6.3.0/bits/basic_string.h:136:28
	ldr	r0, [sp, #128]
.Ltmp281:
.LBB0_52:
	@DEBUG_VALUE: deallocate:__p <- %R0
	@DEBUG_VALUE: deallocate:__p <- %R0
	.loc	3 180 6 is_stmt 1       @ /usr/bin/../lib/gcc/arm-linux-gnueabihf/6.3.0/../../../../include/c++/6.3.0/bits/basic_string.h:180:6
	cmp	r0, r6
	bne	.LBB0_64
	b	.LBB0_65
.Ltmp282:
.LBB0_53:
.Ltmp29:
	mov	lr, pc
	b	_Unwind_Resume
.LBB0_54:
.Ltmp283:
	@DEBUG_VALUE: _S_copy:__s <- %R2
.Ltmp26:
	mov	r4, r0
.Ltmp284:
	.loc	3 136 28                @ /usr/bin/../lib/gcc/arm-linux-gnueabihf/6.3.0/../../../../include/c++/6.3.0/bits/basic_string.h:136:28
	ldr	r0, [sp, #152]
	b	.LBB0_63
.Ltmp285:
.LBB0_55:
.Ltmp23:
	mov	lr, pc
	b	_Unwind_Resume
.LBB0_56:
.Ltmp286:
	@DEBUG_VALUE: _S_copy:__s <- %R0
.Ltmp20:
	mov	r4, r0
.Ltmp287:
	.loc	3 136 28 is_stmt 0      @ /usr/bin/../lib/gcc/arm-linux-gnueabihf/6.3.0/../../../../include/c++/6.3.0/bits/basic_string.h:136:28
	ldr	r0, [r11, #-152]
.Ltmp288:
	b	.LBB0_63
.Ltmp289:
.LBB0_57:
	@DEBUG_VALUE: _S_copy:__s <- %R2
.Ltmp17:
	mov	r4, r0
.Ltmp290:
	.loc	3 136 28                @ /usr/bin/../lib/gcc/arm-linux-gnueabihf/6.3.0/../../../../include/c++/6.3.0/bits/basic_string.h:136:28
	ldr	r0, [r11, #-128]
	b	.LBB0_63
.Ltmp291:
.LBB0_58:
.Ltmp14:
	mov	lr, pc
	b	_Unwind_Resume
.LBB0_59:
.Ltmp11:
	mov	r4, r0
.Ltmp292:
	.loc	3 136 28                @ /usr/bin/../lib/gcc/arm-linux-gnueabihf/6.3.0/../../../../include/c++/6.3.0/bits/basic_string.h:136:28
	ldr	r0, [r11, #-104]
	b	.LBB0_63
.Ltmp293:
.LBB0_60:
	@DEBUG_VALUE: _S_copy:__s <- %R2
.Ltmp8:
	mov	r4, r0
.Ltmp294:
	.loc	3 136 28                @ /usr/bin/../lib/gcc/arm-linux-gnueabihf/6.3.0/../../../../include/c++/6.3.0/bits/basic_string.h:136:28
	ldr	r0, [r11, #-80]
	b	.LBB0_63
.Ltmp295:
.LBB0_61:
.Ltmp5:
	mov	lr, pc
	b	_Unwind_Resume
.LBB0_62:
.Ltmp296:
	@DEBUG_VALUE: _S_copy:__s <- %R0
.Ltmp2:
	mov	r4, r0
.Ltmp297:
	.loc	3 136 28                @ /usr/bin/../lib/gcc/arm-linux-gnueabihf/6.3.0/../../../../include/c++/6.3.0/bits/basic_string.h:136:28
	ldr	r0, [r11, #-56]
.Ltmp298:
.LBB0_63:
	@DEBUG_VALUE: deallocate:__p <- %R0
	@DEBUG_VALUE: deallocate:__p <- %R0
	.loc	3 180 6 is_stmt 1       @ /usr/bin/../lib/gcc/arm-linux-gnueabihf/6.3.0/../../../../include/c++/6.3.0/bits/basic_string.h:180:6
	cmp	r0, r5
	beq	.LBB0_65
.Ltmp299:
.LBB0_64:
	.loc	24 110 9                @ /usr/bin/../lib/gcc/arm-linux-gnueabihf/6.3.0/../../../../include/c++/6.3.0/ext/new_allocator.h:110:9
	bl	_ZdlPv
.Ltmp300:
.LBB0_65:                               @ %_ZNSt7__cxx1112basic_stringIcSt11char_traitsIcESaIcEED2Ev.exit89
	mov	r0, r4
	mov	lr, pc
	b	_Unwind_Resume
.Lfunc_end0:
	.size	setup, .Lfunc_end0-setup
	.cfi_endproc
	.file	26 "/usr/bin/../lib/gcc/arm-linux-gnueabihf/6.3.0/../../../../include/c++/6.3.0/bits" "stl_iterator_base_types.h"
	.file	27 "/usr/bin/../lib/gcc/arm-linux-gnueabihf/6.3.0/../../../../include/c++/6.3.0/bits" "cpp_type_traits.h"
	.globl	__gxx_personality_v0
	.personality __gxx_personality_v0
	.handlerdata
	.p2align	2
GCC_except_table0:
.Lexception0:
	.byte	255                     @ @LPStart Encoding = omit
	.byte	0                       @ @TType Encoding = absptr
	.ascii	"\374\002"              @ @TType base offset
	.byte	3                       @ Call site Encoding = udata4
	.ascii	"\371\002"              @ Call site table length
	.long	.Lfunc_begin0-.Lfunc_begin0 @ >> Call Site 1 <<
	.long	.Ltmp0-.Lfunc_begin0    @   Call between .Lfunc_begin0 and .Ltmp0
	.long	0                       @     has no landing pad
	.byte	0                       @   On action: cleanup
	.long	.Ltmp0-.Lfunc_begin0    @ >> Call Site 2 <<
	.long	.Ltmp1-.Ltmp0           @   Call between .Ltmp0 and .Ltmp1
	.long	.Ltmp2-.Lfunc_begin0    @     jumps to .Ltmp2
	.byte	0                       @   On action: cleanup
	.long	.Ltmp1-.Lfunc_begin0    @ >> Call Site 3 <<
	.long	.Ltmp3-.Ltmp1           @   Call between .Ltmp1 and .Ltmp3
	.long	0                       @     has no landing pad
	.byte	0                       @   On action: cleanup
	.long	.Ltmp3-.Lfunc_begin0    @ >> Call Site 4 <<
	.long	.Ltmp4-.Ltmp3           @   Call between .Ltmp3 and .Ltmp4
	.long	.Ltmp5-.Lfunc_begin0    @     jumps to .Ltmp5
	.byte	0                       @   On action: cleanup
	.long	.Ltmp6-.Lfunc_begin0    @ >> Call Site 5 <<
	.long	.Ltmp7-.Ltmp6           @   Call between .Ltmp6 and .Ltmp7
	.long	.Ltmp8-.Lfunc_begin0    @     jumps to .Ltmp8
	.byte	0                       @   On action: cleanup
	.long	.Ltmp7-.Lfunc_begin0    @ >> Call Site 6 <<
	.long	.Ltmp9-.Ltmp7           @   Call between .Ltmp7 and .Ltmp9
	.long	0                       @     has no landing pad
	.byte	0                       @   On action: cleanup
	.long	.Ltmp9-.Lfunc_begin0    @ >> Call Site 7 <<
	.long	.Ltmp10-.Ltmp9          @   Call between .Ltmp9 and .Ltmp10
	.long	.Ltmp11-.Lfunc_begin0   @     jumps to .Ltmp11
	.byte	0                       @   On action: cleanup
	.long	.Ltmp10-.Lfunc_begin0   @ >> Call Site 8 <<
	.long	.Ltmp12-.Ltmp10         @   Call between .Ltmp10 and .Ltmp12
	.long	0                       @     has no landing pad
	.byte	0                       @   On action: cleanup
	.long	.Ltmp12-.Lfunc_begin0   @ >> Call Site 9 <<
	.long	.Ltmp13-.Ltmp12         @   Call between .Ltmp12 and .Ltmp13
	.long	.Ltmp14-.Lfunc_begin0   @     jumps to .Ltmp14
	.byte	0                       @   On action: cleanup
	.long	.Ltmp15-.Lfunc_begin0   @ >> Call Site 10 <<
	.long	.Ltmp16-.Ltmp15         @   Call between .Ltmp15 and .Ltmp16
	.long	.Ltmp17-.Lfunc_begin0   @     jumps to .Ltmp17
	.byte	0                       @   On action: cleanup
	.long	.Ltmp16-.Lfunc_begin0   @ >> Call Site 11 <<
	.long	.Ltmp18-.Ltmp16         @   Call between .Ltmp16 and .Ltmp18
	.long	0                       @     has no landing pad
	.byte	0                       @   On action: cleanup
	.long	.Ltmp18-.Lfunc_begin0   @ >> Call Site 12 <<
	.long	.Ltmp19-.Ltmp18         @   Call between .Ltmp18 and .Ltmp19
	.long	.Ltmp20-.Lfunc_begin0   @     jumps to .Ltmp20
	.byte	0                       @   On action: cleanup
	.long	.Ltmp19-.Lfunc_begin0   @ >> Call Site 13 <<
	.long	.Ltmp21-.Ltmp19         @   Call between .Ltmp19 and .Ltmp21
	.long	0                       @     has no landing pad
	.byte	0                       @   On action: cleanup
	.long	.Ltmp21-.Lfunc_begin0   @ >> Call Site 14 <<
	.long	.Ltmp22-.Ltmp21         @   Call between .Ltmp21 and .Ltmp22
	.long	.Ltmp23-.Lfunc_begin0   @     jumps to .Ltmp23
	.byte	0                       @   On action: cleanup
	.long	.Ltmp24-.Lfunc_begin0   @ >> Call Site 15 <<
	.long	.Ltmp25-.Ltmp24         @   Call between .Ltmp24 and .Ltmp25
	.long	.Ltmp26-.Lfunc_begin0   @     jumps to .Ltmp26
	.byte	0                       @   On action: cleanup
	.long	.Ltmp25-.Lfunc_begin0   @ >> Call Site 16 <<
	.long	.Ltmp27-.Ltmp25         @   Call between .Ltmp25 and .Ltmp27
	.long	0                       @     has no landing pad
	.byte	0                       @   On action: cleanup
	.long	.Ltmp27-.Lfunc_begin0   @ >> Call Site 17 <<
	.long	.Ltmp28-.Ltmp27         @   Call between .Ltmp27 and .Ltmp28
	.long	.Ltmp29-.Lfunc_begin0   @     jumps to .Ltmp29
	.byte	0                       @   On action: cleanup
	.long	.Ltmp30-.Lfunc_begin0   @ >> Call Site 18 <<
	.long	.Ltmp31-.Ltmp30         @   Call between .Ltmp30 and .Ltmp31
	.long	.Ltmp32-.Lfunc_begin0   @     jumps to .Ltmp32
	.byte	0                       @   On action: cleanup
	.long	.Ltmp31-.Lfunc_begin0   @ >> Call Site 19 <<
	.long	.Ltmp33-.Ltmp31         @   Call between .Ltmp31 and .Ltmp33
	.long	0                       @     has no landing pad
	.byte	0                       @   On action: cleanup
	.long	.Ltmp33-.Lfunc_begin0   @ >> Call Site 20 <<
	.long	.Ltmp34-.Ltmp33         @   Call between .Ltmp33 and .Ltmp34
	.long	.Ltmp35-.Lfunc_begin0   @     jumps to .Ltmp35
	.byte	0                       @   On action: cleanup
	.long	.Ltmp34-.Lfunc_begin0   @ >> Call Site 21 <<
	.long	.Ltmp36-.Ltmp34         @   Call between .Ltmp34 and .Ltmp36
	.long	0                       @     has no landing pad
	.byte	0                       @   On action: cleanup
	.long	.Ltmp36-.Lfunc_begin0   @ >> Call Site 22 <<
	.long	.Ltmp37-.Ltmp36         @   Call between .Ltmp36 and .Ltmp37
	.long	.Ltmp38-.Lfunc_begin0   @     jumps to .Ltmp38
	.byte	0                       @   On action: cleanup
	.long	.Ltmp37-.Lfunc_begin0   @ >> Call Site 23 <<
	.long	.Ltmp39-.Ltmp37         @   Call between .Ltmp37 and .Ltmp39
	.long	0                       @     has no landing pad
	.byte	0                       @   On action: cleanup
	.long	.Ltmp39-.Lfunc_begin0   @ >> Call Site 24 <<
	.long	.Ltmp40-.Ltmp39         @   Call between .Ltmp39 and .Ltmp40
	.long	.Ltmp41-.Lfunc_begin0   @     jumps to .Ltmp41
	.byte	0                       @   On action: cleanup
	.long	.Ltmp40-.Lfunc_begin0   @ >> Call Site 25 <<
	.long	.Ltmp42-.Ltmp40         @   Call between .Ltmp40 and .Ltmp42
	.long	0                       @     has no landing pad
	.byte	0                       @   On action: cleanup
	.long	.Ltmp42-.Lfunc_begin0   @ >> Call Site 26 <<
	.long	.Ltmp43-.Ltmp42         @   Call between .Ltmp42 and .Ltmp43
	.long	.Ltmp44-.Lfunc_begin0   @     jumps to .Ltmp44
	.byte	0                       @   On action: cleanup
	.long	.Ltmp43-.Lfunc_begin0   @ >> Call Site 27 <<
	.long	.Ltmp45-.Ltmp43         @   Call between .Ltmp43 and .Ltmp45
	.long	0                       @     has no landing pad
	.byte	0                       @   On action: cleanup
	.long	.Ltmp45-.Lfunc_begin0   @ >> Call Site 28 <<
	.long	.Ltmp46-.Ltmp45         @   Call between .Ltmp45 and .Ltmp46
	.long	.Ltmp47-.Lfunc_begin0   @     jumps to .Ltmp47
	.byte	0                       @   On action: cleanup
	.long	.Ltmp46-.Lfunc_begin0   @ >> Call Site 29 <<
	.long	.Lfunc_end0-.Ltmp46     @   Call between .Ltmp46 and .Lfunc_end0
	.long	0                       @     has no landing pad
	.byte	0                       @   On action: cleanup
	.p2align	2
	.fnend

	.globl	render
	.p2align	2
	.type	render,%function
render:                                 @ @render
.Lfunc_begin1:
	.loc	1 78 0                  @ /root/Bela/projects/Library_LCD_I2C_v1.0/render.cpp:78:0
	.fnstart
	.cfi_startproc
@ BB#0:
	@DEBUG_VALUE: render:context <- %R0
	@DEBUG_VALUE: render:userData <- %R1
	.loc	1 80 1 prologue_end     @ /root/Bela/projects/Library_LCD_I2C_v1.0/render.cpp:80:1
	bx	lr
.Ltmp301:
.Lfunc_end1:
	.size	render, .Lfunc_end1-render
	.cfi_endproc
	.fnend

	.globl	cleanup
	.p2align	2
	.type	cleanup,%function
cleanup:                                @ @cleanup
.Lfunc_begin2:
	.loc	1 83 0                  @ /root/Bela/projects/Library_LCD_I2C_v1.0/render.cpp:83:0
	.fnstart
	.cfi_startproc
@ BB#0:
	@DEBUG_VALUE: cleanup:context <- %R0
	@DEBUG_VALUE: cleanup:userData <- %R1
	.loc	1 85 1 prologue_end     @ /root/Bela/projects/Library_LCD_I2C_v1.0/render.cpp:85:1
	bx	lr
.Ltmp302:
.Lfunc_end2:
	.size	cleanup, .Lfunc_end2-cleanup
	.cfi_endproc
	.fnend

	.section	.text.startup,"ax",%progbits
	.p2align	2
	.type	_GLOBAL__sub_I_render.ii,%function
_GLOBAL__sub_I_render.ii:               @ @_GLOBAL__sub_I_render.ii
.Lfunc_begin3:
	.file	28 "/root/Bela/projects/Library_LCD_I2C_v1.0/build" "render.cpp"
	.loc	28 0 0                  @ /root/Bela/projects/Library_LCD_I2C_v1.0/build/render.cpp:0:0
	.fnstart
	.cfi_startproc
@ BB#0:
	.loc	1 6 9 prologue_end      @ /root/Bela/projects/Library_LCD_I2C_v1.0/render.cpp:6:9
	movw	r0, :lower16:myDisplay
	mov	r1, #1
	movt	r0, :upper16:myDisplay
	mov	r2, #39
	b	_ZN7LCD_I2CC1Eii
.Ltmp303:
.Lfunc_end3:
	.size	_GLOBAL__sub_I_render.ii, .Lfunc_end3-_GLOBAL__sub_I_render.ii
	.cfi_endproc
	.fnend

	.type	myDisplay,%object       @ @myDisplay
	.bss
	.globl	myDisplay
	.p2align	2
myDisplay:
	.zero	44
	.size	myDisplay, 44

	.type	.L.str,%object          @ @.str
	.section	.rodata.str1.8,"aMS",%progbits,1
	.p2align	3
.L.str:
	.asciz	"Hello World!"
	.size	.L.str, 13

	.type	.L.str.1,%object        @ @.str.1
	.p2align	3
.L.str.1:
	.asciz	"Backlight cycling"
	.size	.L.str.1, 18

	.type	.L.str.3,%object        @ @.str.3
	.p2align	3
.L.str.3:
	.asciz	"Display cycling  "
	.size	.L.str.3, 18

	.type	.L.str.4,%object        @ @.str.4
	.p2align	3
.L.str.4:
	.asciz	"Surprise!"
	.size	.L.str.4, 10

	.type	.L.str.5,%object        @ @.str.5
	.p2align	3
.L.str.5:
	.asciz	"Cursor on blink off"
	.size	.L.str.5, 20

	.type	.L.str.6,%object        @ @.str.6
	.p2align	3
.L.str.6:
	.asciz	"Blink on cursor off"
	.size	.L.str.6, 20

	.type	.L.str.7,%object        @ @.str.7
	.p2align	3
.L.str.7:
	.asciz	"Writing"
	.size	.L.str.7, 8

	.type	.L.str.8,%object        @ @.str.8
	.section	.rodata.str1.1,"aMS",%progbits,1
.L.str.8:
	.asciz	"where"
	.size	.L.str.8, 6

	.type	.L.str.10,%object       @ @.str.10
.L.str.10:
	.asciz	"value: %5.2f"
	.size	.L.str.10, 13

	.section	.init_array,"aw",%init_array
	.p2align	2
	.long	_GLOBAL__sub_I_render.ii(target1)
	.file	29 "./include" "Bela.h"
	.section	".note.GNU-stack","",%progbits
	.eabi_attribute	30, 2	@ Tag_ABI_optimization_goals