	.text
	.syntax unified
	.eabi_attribute	67, "2.09"	@ Tag_conformance
	.cpu	cortex-a8
	.eabi_attribute	6, 10	@ Tag_CPU_arch
	.eabi_attribute	7, 65	@ Tag_CPU_arch_profile
	.eabi_attribute	8, 1	@ Tag_ARM_ISA_use
	.eabi_attribute	9, 2	@ Tag_THUMB_ISA_use
	.fpu	neon
	.eabi_attribute	17, 1	@ Tag_ABI_PCS_GOT_use
	.eabi_attribute	20, 2	@ Tag_ABI_FP_denormal
	.eabi_attribute	23, 1	@ Tag_ABI_FP_number_model
	.eabi_attribute	34, 1	@ Tag_CPU_unaligned_access
	.eabi_attribute	24, 1	@ Tag_ABI_align_needed
	.eabi_attribute	25, 1	@ Tag_ABI_align_preserved
	.eabi_attribute	28, 1	@ Tag_ABI_VFP_args
	.eabi_attribute	38, 1	@ Tag_ABI_FP_16bit_format
	.eabi_attribute	18, 4	@ Tag_ABI_PCS_wchar_t
	.eabi_attribute	26, 2	@ Tag_ABI_enum_size
	.eabi_attribute	14, 0	@ Tag_ABI_PCS_R9_use
	.eabi_attribute	68, 1	@ Tag_Virtualization_use
	.file	"/root/Bela/projects/A08C-Roller-EncoderFile/build/encoder.bc"
	.file	1 "./include" "Bela.h"
	.file	2 "/usr/include" "stdint.h"
	.file	3 "/root/Bela/projects/A08C-Roller-EncoderFile" "encoder.cpp"
	.globl	_ZN7EncoderC2Eii
	.p2align	2
	.type	_ZN7EncoderC2Eii,%function
_ZN7EncoderC2Eii:                       @ @_ZN7EncoderC2Eii
.Lfunc_begin0:
	.loc	3 8 0                   @ /root/Bela/projects/A08C-Roller-EncoderFile/encoder.cpp:8:0
	.fnstart
	.cfi_startproc
@ BB#0:
	@DEBUG_VALUE: Encoder:this <- %R0
	@DEBUG_VALUE: Encoder:Apin <- %R1
	@DEBUG_VALUE: Encoder:Bpin <- %R2
	.file	4 "/root/Bela/projects/A08C-Roller-EncoderFile" "encoder.h"
	.loc	4 17 7 prologue_end     @ /root/Bela/projects/A08C-Roller-EncoderFile/encoder.h:17:7
	mov	r3, #3
	str	r3, [r0, #20]
	.loc	4 18 7                  @ /root/Bela/projects/A08C-Roller-EncoderFile/encoder.h:18:7
	mov	r3, #4000
	str	r3, [r0, #24]
	mov	r3, #0
	.loc	4 20 9                  @ /root/Bela/projects/A08C-Roller-EncoderFile/encoder.h:20:9
	str	r3, [r0, #32]
	.loc	4 22 9                  @ /root/Bela/projects/A08C-Roller-EncoderFile/encoder.h:22:9
	movw	r3, #55050
	movt	r3, #15395
	str	r3, [r0, #40]
.Ltmp0:
	.loc	3 9 7                   @ /root/Bela/projects/A08C-Roller-EncoderFile/encoder.cpp:9:7
	stm	r0, {r1, r2}
.Ltmp1:
	.loc	3 11 1                  @ /root/Bela/projects/A08C-Roller-EncoderFile/encoder.cpp:11:1
	bx	lr
.Ltmp2:
.Lfunc_end0:
	.size	_ZN7EncoderC2Eii, .Lfunc_end0-_ZN7EncoderC2Eii
	.cfi_endproc
	.fnend

	.globl	_ZN7Encoder8getSpeedEP11BelaContexti
	.p2align	2
	.type	_ZN7Encoder8getSpeedEP11BelaContexti,%function
_ZN7Encoder8getSpeedEP11BelaContexti:   @ @_ZN7Encoder8getSpeedEP11BelaContexti
.Lfunc_begin1:
	.loc	3 13 0                  @ /root/Bela/projects/A08C-Roller-EncoderFile/encoder.cpp:13:0
	.fnstart
	.cfi_startproc
@ BB#0:
	.save	{r4, r5, r11, lr}
	push	{r4, r5, r11, lr}
.Ltmp3:
	.cfi_def_cfa_offset 16
.Ltmp4:
	.cfi_offset lr, -4
.Ltmp5:
	.cfi_offset r11, -8
.Ltmp6:
	.cfi_offset r5, -12
.Ltmp7:
	.cfi_offset r4, -16
	@DEBUG_VALUE: getSpeed:this <- %R0
	@DEBUG_VALUE: getSpeed:context <- %R1
	@DEBUG_VALUE: getSpeed:n <- %R2
	ldr	r1, [r1, #16]
.Ltmp8:
	.loc	3 14 41 prologue_end    @ /root/Bela/projects/A08C-Roller-EncoderFile/encoder.cpp:14:41
	ldm	r0, {r3, lr}
.Ltmp9:
	.loc	1 1438 12               @ ./include/Bela.h:1438:12
	ldr	r5, [r1, r2, lsl #2]
	.loc	1 1438 49 is_stmt 0     @ ./include/Bela.h:1438:49
	add	r1, r3, #16
.Ltmp10:
	.loc	1 1438 49               @ ./include/Bela.h:1438:49
	add	r3, lr, #16
	mov	r2, #1
.Ltmp11:
	.loc	3 17 38 is_stmt 1       @ /root/Bela/projects/A08C-Roller-EncoderFile/encoder.cpp:17:38
	ldr	r4, [r0, #8]
.Ltmp12:
	.loc	1 1438 56               @ ./include/Bela.h:1438:56
	and	r1, r2, r5, lsr r1
.Ltmp13:
	@DEBUG_VALUE: getSpeed:encoderA <- %R1
	.loc	1 1438 37 is_stmt 0     @ ./include/Bela.h:1438:37
	lsr	r3, r5, r3
.Ltmp14:
	.loc	3 19 20 is_stmt 1       @ /root/Bela/projects/A08C-Roller-EncoderFile/encoder.cpp:19:20
	ldr	r12, [r0, #12]
.Ltmp15:
	.loc	3 16 30                 @ /root/Bela/projects/A08C-Roller-EncoderFile/encoder.cpp:16:30
	bfi	r1, r3, #1, #1
.Ltmp16:
	@DEBUG_VALUE: getSpeed:encoderState <- %R1
	.loc	3 17 36                 @ /root/Bela/projects/A08C-Roller-EncoderFile/encoder.cpp:17:36
	sub	r3, r1, r4
	.loc	3 18 6                  @ /root/Bela/projects/A08C-Roller-EncoderFile/encoder.cpp:18:6
	tst	r3, #3
	beq	.LBB1_2
.Ltmp17:
@ BB#1:
	@DEBUG_VALUE: getSpeed:encoderState <- %R1
	@DEBUG_VALUE: getSpeed:this <- %R0
	.loc	3 22 19                 @ /root/Bela/projects/A08C-Roller-EncoderFile/encoder.cpp:22:19
	mov	r3, r0
	str	r12, [r3, #16]!
	.loc	3 24 21                 @ /root/Bela/projects/A08C-Roller-EncoderFile/encoder.cpp:24:21
	stmdb	r3, {r1, r2}
	b	.LBB1_3
.Ltmp18:
.LBB1_2:
	@DEBUG_VALUE: getSpeed:encoderState <- %R1
	@DEBUG_VALUE: getSpeed:this <- %R0
	.loc	3 19 20                 @ /root/Bela/projects/A08C-Roller-EncoderFile/encoder.cpp:19:20
	add	r2, r12, #1
	str	r2, [r0, #12]
.Ltmp19:
	.loc	3 26 25                 @ /root/Bela/projects/A08C-Roller-EncoderFile/encoder.cpp:26:25
	mov	r3, r0
	ldr	r12, [r3, #16]!
.Ltmp20:
.LBB1_3:
	@DEBUG_VALUE: getSpeed:encoderState <- %R1
	@DEBUG_VALUE: getSpeed:this <- %R0
	.loc	3 26 6 is_stmt 0        @ /root/Bela/projects/A08C-Roller-EncoderFile/encoder.cpp:26:6
	cmp	r2, r12
.Ltmp21:
	.loc	3 26 57 discriminator 1 @ /root/Bela/projects/A08C-Roller-EncoderFile/encoder.cpp:26:57
	strgt	r2, [r3]
.Ltmp22:
	.loc	3 27 35 is_stmt 1       @ /root/Bela/projects/A08C-Roller-EncoderFile/encoder.cpp:27:35
	movgt	r12, r2
	.loc	3 27 19 is_stmt 0       @ /root/Bela/projects/A08C-Roller-EncoderFile/encoder.cpp:27:19
	ldr	r1, [r0, #20]
.Ltmp23:
	.loc	3 27 35                 @ /root/Bela/projects/A08C-Roller-EncoderFile/encoder.cpp:27:35
	vmov	s0, r12
	vcvt.f32.s32	d0, d0
.Ltmp24:
	.loc	3 28 23 is_stmt 1       @ /root/Bela/projects/A08C-Roller-EncoderFile/encoder.cpp:28:23
	ldr	r2, [r0, #24]
.Ltmp25:
	.loc	3 27 19                 @ /root/Bela/projects/A08C-Roller-EncoderFile/encoder.cpp:27:19
	vmov	s2, r1
	.loc	3 28 6                  @ /root/Bela/projects/A08C-Roller-EncoderFile/encoder.cpp:28:6
	cmp	r12, r2
	.loc	3 27 19                 @ /root/Bela/projects/A08C-Roller-EncoderFile/encoder.cpp:27:19
	vcvt.f32.s32	d1, d1
	.loc	3 27 28 is_stmt 0       @ /root/Bela/projects/A08C-Roller-EncoderFile/encoder.cpp:27:28
	vdiv.f32	s0, s2, s0
	.loc	3 28 6 is_stmt 1        @ /root/Bela/projects/A08C-Roller-EncoderFile/encoder.cpp:28:6
	vmov.i32	d1, #0x0
	vmovgt.f32	s0, s2
.Ltmp26:
	.loc	3 28 44 is_stmt 0 discriminator 1 @ /root/Bela/projects/A08C-Roller-EncoderFile/encoder.cpp:28:44
	vstr	s0, [r0, #28]
.Ltmp27:
	.loc	3 29 10 is_stmt 1       @ /root/Bela/projects/A08C-Roller-EncoderFile/encoder.cpp:29:10
	vldr	s2, [r0, #32]
	.loc	3 29 22 is_stmt 0       @ /root/Bela/projects/A08C-Roller-EncoderFile/encoder.cpp:29:22
	vldr	s4, [r0, #40]
	.loc	3 29 42                 @ /root/Bela/projects/A08C-Roller-EncoderFile/encoder.cpp:29:42
	vsub.f32	d16, d0, d1
	.loc	3 29 32                 @ /root/Bela/projects/A08C-Roller-EncoderFile/encoder.cpp:29:32
	vmul.f32	d16, d2, d16
	.loc	3 29 20                 @ /root/Bela/projects/A08C-Roller-EncoderFile/encoder.cpp:29:20
	vadd.f32	d0, d16, d1
	.loc	3 29 8                  @ /root/Bela/projects/A08C-Roller-EncoderFile/encoder.cpp:29:8
	vstr	s0, [r0, #36]
	.loc	3 30 12 is_stmt 1       @ /root/Bela/projects/A08C-Roller-EncoderFile/encoder.cpp:30:12
	vstr	s0, [r0, #32]
	.loc	3 31 2                  @ /root/Bela/projects/A08C-Roller-EncoderFile/encoder.cpp:31:2
                                        @ kill: %S0<def> %S0<kill> %D0<kill>
	pop	{r4, r5, r11, pc}
.Ltmp28:
.Lfunc_end1:
	.size	_ZN7Encoder8getSpeedEP11BelaContexti, .Lfunc_end1-_ZN7Encoder8getSpeedEP11BelaContexti
	.cfi_endproc
	.fnend

	.type	CONTEXT,%object         @ @CONTEXT
	.bss
	.globl	CONTEXT
	.p2align	2
CONTEXT:
	.long	0
	.size	CONTEXT, 4

	.section	".note.GNU-stack","",%progbits
	.eabi_attribute	30, 2	@ Tag_ABI_optimization_goals