	.text
	.syntax unified
	.eabi_attribute	67, "2.09"	@ Tag_conformance
	.cpu	cortex-a8
	.eabi_attribute	6, 10	@ Tag_CPU_arch
	.eabi_attribute	7, 65	@ Tag_CPU_arch_profile
	.eabi_attribute	8, 1	@ Tag_ARM_ISA_use
	.eabi_attribute	9, 2	@ Tag_THUMB_ISA_use
	.fpu	neon
	.eabi_attribute	17, 1	@ Tag_ABI_PCS_GOT_use
	.eabi_attribute	20, 2	@ Tag_ABI_FP_denormal
	.eabi_attribute	23, 1	@ Tag_ABI_FP_number_model
	.eabi_attribute	34, 1	@ Tag_CPU_unaligned_access
	.eabi_attribute	24, 1	@ Tag_ABI_align_needed
	.eabi_attribute	25, 1	@ Tag_ABI_align_preserved
	.eabi_attribute	28, 1	@ Tag_ABI_VFP_args
	.eabi_attribute	38, 1	@ Tag_ABI_FP_16bit_format
	.eabi_attribute	18, 4	@ Tag_ABI_PCS_wchar_t
	.eabi_attribute	26, 2	@ Tag_ABI_enum_size
	.eabi_attribute	14, 0	@ Tag_ABI_PCS_R9_use
	.eabi_attribute	68, 1	@ Tag_Virtualization_use
	.file	"/root/Bela/projects/A08C-Roller-EncoderFile/build/render.bc"
	.file	1 "/root/Bela/projects/A08C-Roller-EncoderFile" "render.cpp"
	.file	2 "/root/Bela/projects/A08C-Roller-EncoderFile" "encoder.h"
	.file	3 "./include" "Bela.h"
	.file	4 "/usr/include" "stdint.h"
	.file	5 "/usr/bin/../lib/gcc/arm-linux-gnueabihf/6.3.0/../../../../include/arm-linux-gnueabihf/c++/6.3.0/bits" "c++config.h"
	.file	6 "/usr/include/arm-linux-gnueabihf/bits" "math-finite.h"
	.file	7 "/usr/include/arm-linux-gnueabihf/bits" "mathcalls.h"
	.file	8 "/usr/include/arm-linux-gnueabihf/bits" "mathdef.h"
	.globl	setup
	.p2align	2
	.type	setup,%function
setup:                                  @ @setup
.Lfunc_begin0:
	.loc	1 28 0                  @ /root/Bela/projects/A08C-Roller-EncoderFile/render.cpp:28:0
	.fnstart
	.cfi_startproc
@ BB#0:
	.save	{r4, r10, r11, lr}
	push	{r4, r10, r11, lr}
.Ltmp0:
	.cfi_def_cfa_offset 16
.Ltmp1:
	.cfi_offset lr, -4
.Ltmp2:
	.cfi_offset r11, -8
.Ltmp3:
	.cfi_offset r10, -12
.Ltmp4:
	.cfi_offset r4, -16
	.setfp	r11, sp, #8
	add	r11, sp, #8
.Ltmp5:
	.cfi_def_cfa r11, 8
	@DEBUG_VALUE: setup:context <- %R0
	@DEBUG_VALUE: setup:userData <- %R1
.Ltmp6:
	.loc	1 29 16 prologue_end    @ /root/Bela/projects/A08C-Roller-EncoderFile/render.cpp:29:16
	vmov.f32	d1, #1.000000e+00
	.loc	1 29 31 is_stmt 0       @ /root/Bela/projects/A08C-Roller-EncoderFile/render.cpp:29:31
	vldr	s0, [r0, #32]
	.loc	1 29 14                 @ /root/Bela/projects/A08C-Roller-EncoderFile/render.cpp:29:14
	movw	r4, :lower16:.L_MergedGlobals
	movt	r4, :upper16:.L_MergedGlobals
	.loc	1 29 16                 @ /root/Bela/projects/A08C-Roller-EncoderFile/render.cpp:29:16
	vdiv.f32	s0, s2, s0
	.loc	1 29 14                 @ /root/Bela/projects/A08C-Roller-EncoderFile/render.cpp:29:14
	vstr	s0, [r4, #20]
	.loc	1 30 31 is_stmt 1       @ /root/Bela/projects/A08C-Roller-EncoderFile/render.cpp:30:31
	ldr	r2, [r0, #20]
	.loc	1 30 54 is_stmt 0       @ /root/Bela/projects/A08C-Roller-EncoderFile/render.cpp:30:54
	ldr	r1, [r0, #36]
.Ltmp7:
	.loc	1 30 43                 @ /root/Bela/projects/A08C-Roller-EncoderFile/render.cpp:30:43
	mov	r0, r2
.Ltmp8:
	bl	__aeabi_uidiv
	.loc	1 30 20                 @ /root/Bela/projects/A08C-Roller-EncoderFile/render.cpp:30:20
	str	r0, [r4, #24]
	.loc	1 32 2 is_stmt 1        @ /root/Bela/projects/A08C-Roller-EncoderFile/render.cpp:32:2
	mov	r0, #1
	pop	{r4, r10, r11, pc}
.Ltmp9:
.Lfunc_end0:
	.size	setup, .Lfunc_end0-setup
	.cfi_endproc
	.fnend

	.globl	render
	.p2align	3
	.type	render,%function
render:                                 @ @render
.Lfunc_begin1:
	.loc	1 36 0                  @ /root/Bela/projects/A08C-Roller-EncoderFile/render.cpp:36:0
	.fnstart
	.cfi_startproc
@ BB#0:
	.save	{r4, r5, r6, r7, r8, r10, r11, lr}
	push	{r4, r5, r6, r7, r8, r10, r11, lr}
.Ltmp10:
	.cfi_def_cfa_offset 32
.Ltmp11:
	.cfi_offset lr, -4
.Ltmp12:
	.cfi_offset r11, -8
.Ltmp13:
	.cfi_offset r10, -12
.Ltmp14:
	.cfi_offset r8, -16
.Ltmp15:
	.cfi_offset r7, -20
.Ltmp16:
	.cfi_offset r6, -24
.Ltmp17:
	.cfi_offset r5, -28
.Ltmp18:
	.cfi_offset r4, -32
	.setfp	r11, sp, #24
	add	r11, sp, #24
.Ltmp19:
	.cfi_def_cfa r11, 8
	.vsave	{d8, d9, d10, d11, d12}
	vpush	{d8, d9, d10, d11, d12}
.Ltmp20:
	.cfi_offset d12, -40
.Ltmp21:
	.cfi_offset d11, -48
.Ltmp22:
	.cfi_offset d10, -56
.Ltmp23:
	.cfi_offset d9, -64
.Ltmp24:
	.cfi_offset d8, -72
	@DEBUG_VALUE: render:context <- %R0
	@DEBUG_VALUE: render:userData <- %R1
	mov	r4, r0
.Ltmp25:
	@DEBUG_VALUE: n <- 0
	@DEBUG_VALUE: render:context <- %R4
	.loc	1 37 39 prologue_end discriminator 1 @ /root/Bela/projects/A08C-Roller-EncoderFile/render.cpp:37:39
	ldr	r0, [r4, #20]
	.loc	1 37 2 is_stmt 0 discriminator 1 @ /root/Bela/projects/A08C-Roller-EncoderFile/render.cpp:37:2
	cmp	r0, #0
	beq	.LBB1_6
.Ltmp26:
@ BB#1:                                 @ %.lr.ph
	@DEBUG_VALUE: render:context <- %R4
	@DEBUG_VALUE: render:userData <- %R1
	.loc	1 38 6 is_stmt 1        @ /root/Bela/projects/A08C-Roller-EncoderFile/render.cpp:38:6
	movw	r8, :lower16:.L_MergedGlobals
.Ltmp27:
	.loc	1 46 43                 @ /root/Bela/projects/A08C-Roller-EncoderFile/render.cpp:46:43
	vldr	d9, .LCPI1_2
.Ltmp28:
	.loc	1 47 54 discriminator 1 @ /root/Bela/projects/A08C-Roller-EncoderFile/render.cpp:47:54
	vldr	d10, .LCPI1_3
	mov	r5, #0
.Ltmp29:
	.file	9 "./include" "Utilities.h"
	.loc	9 73 44                 @ ./include/Utilities.h:73:44
	vldr	s22, .LCPI1_0
.Ltmp30:
	.loc	1 38 6                  @ /root/Bela/projects/A08C-Roller-EncoderFile/render.cpp:38:6
	movt	r8, :upper16:.L_MergedGlobals
.Ltmp31:
	.loc	9 73 64                 @ ./include/Utilities.h:73:64
	vldr	s24, .LCPI1_1
.Ltmp32:
.LBB1_2:                                @ =>This Inner Loop Header: Depth=1
	.loc	1 38 6                  @ /root/Bela/projects/A08C-Roller-EncoderFile/render.cpp:38:6
	ldr	r6, [r8, #24]
	.loc	1 38 24 is_stmt 0       @ /root/Bela/projects/A08C-Roller-EncoderFile/render.cpp:38:24
	cmp	r6, #0
	beq	.LBB1_5
@ BB#3:                                 @   in Loop: Header=BB1_2 Depth=1
	.loc	1 38 31 discriminator 1 @ /root/Bela/projects/A08C-Roller-EncoderFile/render.cpp:38:31
	mov	r0, r5
	mov	r1, r6
	bl	__aeabi_uidivmod
	.loc	1 38 6 discriminator 1  @ /root/Bela/projects/A08C-Roller-EncoderFile/render.cpp:38:6
	cmp	r1, #0
	bne	.LBB1_5
@ BB#4:                                 @   in Loop: Header=BB1_2 Depth=1
.Ltmp33:
	.loc	1 40 41 is_stmt 1       @ /root/Bela/projects/A08C-Roller-EncoderFile/render.cpp:40:41
	mov	r0, r5
	mov	r1, r6
	bl	__aeabi_uidiv
	ldr	r2, [r4, #40]
	.loc	1 40 61 is_stmt 0       @ /root/Bela/projects/A08C-Roller-EncoderFile/render.cpp:40:61
	ldr	r3, [r8]
	ldr	r1, [r4, #8]
.Ltmp34:
	.loc	3 1400 61 is_stmt 1     @ ./include/Bela.h:1400:61
	mla	r0, r2, r0, r3
	.loc	3 1400 9 is_stmt 0      @ ./include/Bela.h:1400:9
	add	r0, r1, r0, lsl #2
	vldr	s0, [r0]
.Ltmp35:
	@DEBUG_VALUE: map:out_max <- 1.000000e+03
	@DEBUG_VALUE: map:out_min <- 1.000000e+02
	@DEBUG_VALUE: map:in_max <- 1.000000e+00
	@DEBUG_VALUE: map:in_min <- 0.000000e+00
	.loc	9 73 44 is_stmt 1       @ ./include/Utilities.h:73:44
	vmul.f32	d16, d0, d11
	.loc	9 73 64 is_stmt 0       @ ./include/Utilities.h:73:64
	vadd.f32	d0, d16, d12
.Ltmp36:
	.loc	1 40 14 is_stmt 1       @ /root/Bela/projects/A08C-Roller-EncoderFile/render.cpp:40:14
	vstr	s0, [r8, #12]
.Ltmp37:
.LBB1_5:                                @   in Loop: Header=BB1_2 Depth=1
	.loc	1 43 28 discriminator 1 @ /root/Bela/projects/A08C-Roller-EncoderFile/render.cpp:43:28
	add	r0, r8, #28
	mov	r1, r4
	mov	r2, r5
	bl	_ZN7Encoder8getSpeedEP11BelaContexti
	.loc	1 46 45                 @ /root/Bela/projects/A08C-Roller-EncoderFile/render.cpp:46:45
	vldr	s2, [r8, #12]
	.loc	1 43 28 discriminator 1 @ /root/Bela/projects/A08C-Roller-EncoderFile/render.cpp:43:28
	vorr	d8, d0, d0
.Ltmp38:
	@DEBUG_VALUE: speed <- %S16
	.loc	1 46 57                 @ /root/Bela/projects/A08C-Roller-EncoderFile/render.cpp:46:57
	vldr	s4, [r8, #20]
	.loc	1 46 45 is_stmt 0       @ /root/Bela/projects/A08C-Roller-EncoderFile/render.cpp:46:45
	vcvt.f64.f32	d16, s2
	.loc	1 46 43                 @ /root/Bela/projects/A08C-Roller-EncoderFile/render.cpp:46:43
	vmul.f64	d16, d16, d9
	.loc	1 46 57                 @ /root/Bela/projects/A08C-Roller-EncoderFile/render.cpp:46:57
	vcvt.f64.f32	d17, s4
	.loc	1 46 55                 @ /root/Bela/projects/A08C-Roller-EncoderFile/render.cpp:46:55
	vmul.f64	d16, d16, d17
	.loc	1 45 34 is_stmt 1       @ /root/Bela/projects/A08C-Roller-EncoderFile/render.cpp:45:34
	vldr	s0, [r8, #16]
	.loc	1 46 11                 @ /root/Bela/projects/A08C-Roller-EncoderFile/render.cpp:46:11
	vcvt.f64.f32	d17, s0
	vadd.f64	d16, d16, d17
	vcvt.f32.f64	s2, d16
.Ltmp39:
	.loc	1 47 6                  @ /root/Bela/projects/A08C-Roller-EncoderFile/render.cpp:47:6
	vcvt.f64.f32	d16, s2
.Ltmp40:
	.loc	1 47 6 is_stmt 0        @ /root/Bela/projects/A08C-Roller-EncoderFile/render.cpp:47:6
	vcmpe.f64	d16, d9
	vmrs	APSR_nzcv, fpscr
.Ltmp41:
	.loc	1 47 54 discriminator 1 @ /root/Bela/projects/A08C-Roller-EncoderFile/render.cpp:47:54
	vadd.f64	d17, d16, d10
	vcvt.f32.f64	s4, d17
.Ltmp42:
	.loc	1 47 6                  @ /root/Bela/projects/A08C-Roller-EncoderFile/render.cpp:47:6
	vmovgt.f32	s2, s4
	.loc	1 46 11 is_stmt 1       @ /root/Bela/projects/A08C-Roller-EncoderFile/render.cpp:46:11
	vstr	s2, [r8, #16]
	ldr	r0, [r4, #28]
	ldr	r6, [r4, #4]
.Ltmp43:
	.loc	3 1389 26               @ ./include/Bela.h:1389:26
	mul	r7, r0, r5
.Ltmp44:
	.loc	1 45 29 discriminator 1 @ /root/Bela/projects/A08C-Roller-EncoderFile/render.cpp:45:29
	bl	sinf
                                        @ kill: %S0<def> %S0<kill> %D0<def>
	add	r0, r6, r7, lsl #2
.Ltmp45:
	.loc	1 37 53 discriminator 3 @ /root/Bela/projects/A08C-Roller-EncoderFile/render.cpp:37:53
	add	r5, r5, #1
.Ltmp46:
	@DEBUG_VALUE: n <- %R5
	.loc	1 45 15                 @ /root/Bela/projects/A08C-Roller-EncoderFile/render.cpp:45:15
	vmul.f32	d0, d0, d8
.Ltmp47:
	@DEBUG_VALUE: out <- %S0
	.loc	3 1389 65               @ ./include/Bela.h:1389:65
	vstr	s0, [r0]
.Ltmp48:
	.loc	3 1389 65 is_stmt 0     @ ./include/Bela.h:1389:65
	vstr	s0, [r0, #4]
.Ltmp49:
	.loc	1 37 39 is_stmt 1 discriminator 1 @ /root/Bela/projects/A08C-Roller-EncoderFile/render.cpp:37:39
	ldr	r0, [r4, #20]
	.loc	1 37 2 is_stmt 0 discriminator 1 @ /root/Bela/projects/A08C-Roller-EncoderFile/render.cpp:37:2
	cmp	r5, r0
	blo	.LBB1_2
.Ltmp50:
.LBB1_6:                                @ %._crit_edge
	.loc	1 53 1 is_stmt 1        @ /root/Bela/projects/A08C-Roller-EncoderFile/render.cpp:53:1
	vpop	{d8, d9, d10, d11, d12}
	pop	{r4, r5, r6, r7, r8, r10, r11, pc}
.Ltmp51:
	.p2align	3
@ BB#7:
.LCPI1_2:
	.long	1413754136              @ double 6.2831853071795862
	.long	1075388923
.LCPI1_3:
	.long	1413754136              @ double -6.2831853071795862
	.long	3222872571
.LCPI1_0:
	.long	1147207680              @ float 900
.LCPI1_1:
	.long	1120403456              @ float 100
.Lfunc_end1:
	.size	render, .Lfunc_end1-render
	.cfi_endproc
	.fnend

	.globl	cleanup
	.p2align	2
	.type	cleanup,%function
cleanup:                                @ @cleanup
.Lfunc_begin2:
	.loc	1 55 0                  @ /root/Bela/projects/A08C-Roller-EncoderFile/render.cpp:55:0
	.fnstart
	.cfi_startproc
@ BB#0:
	@DEBUG_VALUE: cleanup:context <- %R0
	@DEBUG_VALUE: cleanup:userData <- %R1
	.loc	1 57 1 prologue_end     @ /root/Bela/projects/A08C-Roller-EncoderFile/render.cpp:57:1
	bx	lr
.Ltmp52:
.Lfunc_end2:
	.size	cleanup, .Lfunc_end2-cleanup
	.cfi_endproc
	.fnend

	.section	.text.startup,"ax",%progbits
	.p2align	2
	.type	_GLOBAL__sub_I_render.ii,%function
_GLOBAL__sub_I_render.ii:               @ @_GLOBAL__sub_I_render.ii
.Lfunc_begin3:
	.file	10 "/root/Bela/projects/A08C-Roller-EncoderFile/build" "render.cpp"
	.loc	10 0 0                  @ /root/Bela/projects/A08C-Roller-EncoderFile/build/render.cpp:0:0
	.fnstart
	.cfi_startproc
@ BB#0:
	.loc	1 15 20 prologue_end    @ /root/Bela/projects/A08C-Roller-EncoderFile/render.cpp:15:20
	movw	r0, :lower16:.L_MergedGlobals
	movt	r0, :upper16:.L_MergedGlobals
	ldmib	r0, {r1, r2}
	.loc	1 15 9 is_stmt 0        @ /root/Bela/projects/A08C-Roller-EncoderFile/render.cpp:15:9
	add	r0, r0, #28
	b	_ZN7EncoderC1Eii
.Ltmp53:
.Lfunc_end3:
	.size	_GLOBAL__sub_I_render.ii, .Lfunc_end3-_GLOBAL__sub_I_render.ii
	.cfi_endproc
	.fnend

	.type	amplitude,%object       @ @amplitude
	.bss
	.globl	amplitude
	.p2align	2
amplitude:
	.long	0                       @ float 0
	.size	amplitude, 4

	.section	.init_array,"aw",%init_array
	.p2align	2
	.long	_GLOBAL__sub_I_render.ii(target1)
	.type	.L_MergedGlobals,%object @ @_MergedGlobals
	.data
	.p2align	4
.L_MergedGlobals:
	.long	0                       @ 0x0
	.long	6                       @ 0x6
	.long	7                       @ 0x7
	.long	0                       @ float 0
	.long	0                       @ float 0
	.long	0                       @ float 0
	.long	0                       @ 0x0
	.zero	44
	.size	.L_MergedGlobals, 72

	.section	".note.GNU-stack","",%progbits
	.eabi_attribute	30, 2	@ Tag_ABI_optimization_goals